(lp0
(lp1
S'usr/pkg/info/gmp.info'
p2
aS'4b4ab49295438056d7995b07e7507115'
p3
aa(lp4
S'usr/pkg/info/libidn-components.png'
p5
aS'20c0141083a6faf944bbd8c56e5a68e1'
p6
aa(lp7
S'usr/pkg/info/autoconf213.info'
p8
aS'587c8e372a989d716ebf8cdd4fc0fd15'
p9
aa(lp10
S'usr/pkg/info/autoconf.info'
p11
aS'2d627d5910903c3d75f982e94327f9b4'
p12
aa(lp13
S'usr/pkg/info/texinfo-2'
p14
aS'7420c105968cab7c17ad1d60d953933e'
p15
aa(lp16
S'usr/pkg/info/gmp.info-1'
p17
aS'4acd39d0db814b019e2bd3d3aa80ea6a'
p18
aa(lp19
S'usr/pkg/info/m4.info-1'
p20
aS'4e32f37dd34fbc9b272eecdba1a592a8'
p21
aa(lp22
S'usr/pkg/info/libidn.info'
p23
aS'6fdaefbf1eead46b5d0f3d17f9451029'
p24
aa(lp25
S'usr/pkg/info/libffi.info'
p26
aS'f31656da2d750c89b30416ffb3f44f45'
p27
aa(lp28
S'usr/pkg/info/libtool.info'
p29
aS'2f0b1539e7db726e3769233f2676a8f6'
p30
aa(lp31
S'usr/pkg/info/texinfo'
p32
aS'a11eca82f0c326b22d04b183064680e0'
p33
aa(lp34
S'usr/pkg/info/history.info'
p35
aS'e9e4a4ffd57dfcafbe90b95edd33015f'
p36
aa(lp37
S'usr/pkg/info/bash.info'
p38
aS'4f6c921d9bb485bd34730660af123c85'
p39
aa(lp40
S'usr/pkg/info/readline.info'
p41
aS'5ada82f3fb70b727d01943107ce6ba80'
p42
aa(lp43
S'usr/pkg/info/automake.info'
p44
aS'37286d6f5ce97d84baa37579d961af80'
p45
aa(lp46
S'usr/pkg/info/info-stnd.info'
p47
aS'721f81f2cf3501db12b2e09a706a7190'
p48
aa(lp49
S'usr/pkg/info/mpfr.info'
p50
aS'2bda51926b832376a3882c64cfd56e54'
p51
aa(lp52
S'usr/pkg/info/texinfo-1'
p53
aS'65c078b65489abe99ca95f82c2aeb090'
p54
aa(lp55
S'usr/pkg/info/gcrypt.info'
p56
aS'24c18bc8d8ab9f5c52b94c2ddfa6b8e7'
p57
aa(lp58
S'usr/pkg/info/automake.info-2'
p59
aS'fb0745c6d9c8b76444c7e59281b6914c'
p60
aa(lp61
S'usr/pkg/info/gettext.info'
p62
aS'896b8c6b4469baee9fd84feab8f5efe6'
p63
aa(lp64
S'usr/pkg/info/standards.info'
p65
aS'55d7a6285c7c0cf97a6b31cc2241ede4'
p66
aa(lp67
S'usr/pkg/info/m4.info-2'
p68
aS'b3b3f7ac15f955b149fcd7c58506a239'
p69
aa(lp70
S'usr/pkg/info/rluserman.info'
p71
aS'69ae9f35f60d38abdc6c285b7287774c'
p72
aa(lp73
S'usr/pkg/info/autosprintf.info'
p74
aS'c470e50d48796ef10288ffb3ae53242a'
p75
aa(lp76
S'usr/pkg/info/info.info'
p77
aS'399a27abd4bc9835dd24d5b0d15e450a'
p78
aa(lp79
S'usr/pkg/info/texinfo-3'
p80
aS'9dce47faa7102233e7ed0fcbbb425bcb'
p81
aa(lp82
S'usr/pkg/info/m4.info'
p83
aS'cd42d71dc0b3457203cf1cebd8b59f65'
p84
aa(lp85
S'usr/pkg/info/automake14.info'
p86
aS'72650e19490c3faf0d0c5a647b04d3b2'
p87
aa(lp88
S'usr/pkg/info/dir'
p89
aS'549c556b14d35d3287a417bf8092006d'
p90
aa(lp91
S'usr/pkg/info/gmp.info-2'
p92
aS'9d07a6120c93b267771b7927824eacc8'
p93
aa(lp94
S'usr/pkg/info/automake.info-1'
p95
aS'7a177578a71ca608782f14309f3e0cc0'
p96
aa.