(lp0
(lp1
S'usr/pkg/man/cat5/pkg_install.conf.0'
p2
aS'cd965c712c3de1603633356088a8d79a'
p3
aa(lp4
S'usr/pkg/man/cat5/pkg_summary.0'
p5
aS'4e0d55f2e78fe6e1c97de7f54aee5ef7'
p6
aa(lp7
S'usr/pkg/man/cat8/download-vulnerability-list.0'
p8
aS'b3174138abaaa7a871a62b4798ae6ecd'
p9
aa(lp10
S'usr/pkg/man/cat8/audit-packages.0'
p11
aS'ecde4cbf3de00f28088e1a93119178bc'
p12
aa(lp13
S'usr/pkg/man/man3/curs_kernel.3'
p14
aS'80fbd26c200512e1d4a77e181d7a00db'
p15
aa(lp16
S'usr/pkg/man/man3/use_legacy_coding.3'
p17
aS'1f0e86902f656d68163745a55b4489b8'
p18
aa(lp19
S'usr/pkg/man/man3/key_name.3'
p20
aS'1d97c2db25f7854814dbc09a8580ce5f'
p21
aa(lp22
S'usr/pkg/man/man3/show_panel.3'
p23
aS'7ad0d67d24641e311802c9fdb9c7c979'
p24
aa(lp25
S'usr/pkg/man/man3/syncok.3'
p26
aS'566762efd513dfa3c5f8d5dccd59e3af'
p27
aa(lp28
S'usr/pkg/man/man3/stringprep_4zi.3'
p29
aS'7739c8a83e7e2ba3c954e39f763babe8'
p30
aa(lp31
S'usr/pkg/man/man3/setcchar.3'
p32
aS'489e910cbb7b6288c548d4658b79daa3'
p33
aa(lp34
S'usr/pkg/man/man3/curs_initscr.3'
p35
aS'834e070545a142762f74e04ad94087b3'
p36
aa(lp37
S'usr/pkg/man/man3/curs_getch.3'
p38
aS'ddd3e91294b76a26124204f5d2da2ab8'
p39
aa(lp40
S'usr/pkg/man/man3/mvwinch.3'
p41
aS'c59b3c6fc915d5d5fafff0660c9452db'
p42
aa(lp43
S'usr/pkg/man/man3/wborder.3'
p44
aS'64157d6eee0cf3b56a8627fa3a1e0499'
p45
aa(lp46
S'usr/pkg/man/man3/pair_content.3'
p47
aS'2974f31c38a8f500c2de582763d1b968'
p48
aa(lp49
S'usr/pkg/man/man3/_tracedump.3'
p50
aS'5b1a4d120b996b296ed5277ca66f8d19'
p51
aa(lp52
S'usr/pkg/man/man3/is_leaveok.3'
p53
aS'cbe262815ccffb74b84cc02fb32c6ac5'
p54
aa(lp55
S'usr/pkg/man/man3/getcchar.3'
p56
aS'489e910cbb7b6288c548d4658b79daa3'
p57
aa(lp58
S'usr/pkg/man/man3/ins_wstr.3'
p59
aS'a3f2e16bc5c018e233b66375d0b77d1f'
p60
aa(lp61
S'usr/pkg/man/man3/curses_version.3'
p62
aS'705c4519364fc6cf8c7c80aac586c49d'
p63
aa(lp64
S'usr/pkg/man/man3/menu_hook.3'
p65
aS'db77d6308aa550f1cc21f2171848fe05'
p66
aa(lp67
S'usr/pkg/man/man3/is_wintouched.3'
p68
aS'2a4e03f749cdf0b0b51b185dd855aeba'
p69
aa(lp70
S'usr/pkg/man/man3/update_panels.3'
p71
aS'7ad0d67d24641e311802c9fdb9c7c979'
p72
aa(lp73
S'usr/pkg/man/man3/is_term_resized.3'
p74
aS'a41784d0e569df7a9c46a916b8e381ac'
p75
aa(lp76
S'usr/pkg/man/man3/mvaddchstr.3'
p77
aS'00e937723d0a653f41a411cda0cce2e4'
p78
aa(lp79
S'usr/pkg/man/man3/inchstr.3'
p80
aS'0f29ab49693f3e552f1794ba0e552526'
p81
aa(lp82
S'usr/pkg/man/man3/dgettext.3'
p83
aS'20522f0b51fe61b1d40564dbfd679b1e'
p84
aa(lp85
S'usr/pkg/man/man3/set_item_opts.3'
p86
aS'8d752108e6979a9df534325232899d00'
p87
aa(lp88
S'usr/pkg/man/man3/move.3'
p89
aS'9011b556d78d470c281b1df90d6cef44'
p90
aa(lp91
S'usr/pkg/man/man3/mvwvline_set.3'
p92
aS'4ff9ed1d8587304547fafe611efafa9a'
p93
aa(lp94
S'usr/pkg/man/man3/set_max_field.3'
p95
aS'e82f6cea5812a5fc19f2f112ddf51c90'
p96
aa(lp97
S'usr/pkg/man/man3/erasechar.3'
p98
aS'e115556a2452a85222de82b37d689714'
p99
aa(lp100
S'usr/pkg/man/man3/free_menu.3'
p101
aS'74dd1e0debf0de6c609f8399ef1e6edb'
p102
aa(lp103
S'usr/pkg/man/man3/killchar.3'
p104
aS'e115556a2452a85222de82b37d689714'
p105
aa(lp106
S'usr/pkg/man/man3/attr_off.3'
p107
aS'5acfc3c1f8bfde79b2736eeb40df841b'
p108
aa(lp109
S'usr/pkg/man/man3/ungetch.3'
p110
aS'ddd3e91294b76a26124204f5d2da2ab8'
p111
aa(lp112
S'usr/pkg/man/man3/border_set.3'
p113
aS'4ff9ed1d8587304547fafe611efafa9a'
p114
aa(lp115
S'usr/pkg/man/man3/wattron.3'
p116
aS'5acfc3c1f8bfde79b2736eeb40df841b'
p117
aa(lp118
S'usr/pkg/man/man3/wtouchln.3'
p119
aS'2a4e03f749cdf0b0b51b185dd855aeba'
p120
aa(lp121
S'usr/pkg/man/man3/wattr_get.3'
p122
aS'5acfc3c1f8bfde79b2736eeb40df841b'
p123
aa(lp124
S'usr/pkg/man/man3/winch.3'
p125
aS'c59b3c6fc915d5d5fafff0660c9452db'
p126
aa(lp127
S'usr/pkg/man/man3/form_win.3'
p128
aS'7b716e02433d8456462d3d8ea728097d'
p129
aa(lp130
S'usr/pkg/man/man3/winsch.3'
p131
aS'9d67c3412869e2a0b067054ad3b2556f'
p132
aa(lp133
S'usr/pkg/man/man3/curs_insch.3'
p134
aS'9d67c3412869e2a0b067054ad3b2556f'
p135
aa(lp136
S'usr/pkg/man/man3/set_form_page.3'
p137
aS'ef0c3e1b1122658131d52fbc4e0e2d1d'
p138
aa(lp139
S'usr/pkg/man/man3/hline.3'
p140
aS'64157d6eee0cf3b56a8627fa3a1e0499'
p141
aa(lp142
S'usr/pkg/man/man3/menu_mark.3'
p143
aS'4a3431be2a17af8c7d94beb99fbaa669'
p144
aa(lp145
S'usr/pkg/man/man3/dup_field.3'
p146
aS'4d4a7a758902622cffa6bcde533f1585'
p147
aa(lp148
S'usr/pkg/man/man3/curl_easy_unescape.3'
p149
aS'cc600bf09627899661800d9288d54782'
p150
aa(lp151
S'usr/pkg/man/man3/wprintw.3'
p152
aS'35663d4cd8e23e01440ab38f867cc372'
p153
aa(lp154
S'usr/pkg/man/man3/set_form_sub.3'
p155
aS'7b716e02433d8456462d3d8ea728097d'
p156
aa(lp157
S'usr/pkg/man/man3/whline.3'
p158
aS'64157d6eee0cf3b56a8627fa3a1e0499'
p159
aa(lp160
S'usr/pkg/man/man3/textdomain.3'
p161
aS'27184cc039587c3d4441df58cbc2e936'
p162
aa(lp163
S'usr/pkg/man/man3/_traceattr2.3'
p164
aS'5b1a4d120b996b296ed5277ca66f8d19'
p165
aa(lp166
S'usr/pkg/man/man3/tld_check_4t.3'
p167
aS'428fab295f6d348a1238721470bfb680'
p168
aa(lp169
S'usr/pkg/man/man3/mvwin.3'
p170
aS'566762efd513dfa3c5f8d5dccd59e3af'
p171
aa(lp172
S'usr/pkg/man/man3/menu_post.3'
p173
aS'cf7092cb13bfd40427ac2ad22bf64671'
p174
aa(lp175
S'usr/pkg/man/man3/mvwgetch.3'
p176
aS'ddd3e91294b76a26124204f5d2da2ab8'
p177
aa(lp178
S'usr/pkg/man/man3/longname.3'
p179
aS'e115556a2452a85222de82b37d689714'
p180
aa(lp181
S'usr/pkg/man/man3/bottom_panel.3'
p182
aS'7ad0d67d24641e311802c9fdb9c7c979'
p183
aa(lp184
S'usr/pkg/man/man3/wbkgd.3'
p185
aS'0eb2cca33211b8a9f90b9487d4886a28'
p186
aa(lp187
S'usr/pkg/man/man3/scr_init.3'
p188
aS'cb92c8f2d2b594cd8d173e6b663822b3'
p189
aa(lp190
S'usr/pkg/man/man3/mvwgetstr.3'
p191
aS'ac20cde1e417b3f01ad53b995dd729d4'
p192
aa(lp193
S'usr/pkg/man/man3/post_menu.3'
p194
aS'cf7092cb13bfd40427ac2ad22bf64671'
p195
aa(lp196
S'usr/pkg/man/man3/slk_color.3'
p197
aS'621e752a9f8a1d85320c4b56e6a46dd7'
p198
aa(lp199
S'usr/pkg/man/man3/slk_attroff.3'
p200
aS'621e752a9f8a1d85320c4b56e6a46dd7'
p201
aa(lp202
S'usr/pkg/man/man3/libpngpf.3'
p203
aS'4a9fb88251b0e077098431af7ad6fc18'
p204
aa(lp205
S'usr/pkg/man/man3/curs_inchstr.3'
p206
aS'0f29ab49693f3e552f1794ba0e552526'
p207
aa(lp208
S'usr/pkg/man/man3/_tracemouse.3'
p209
aS'5b1a4d120b996b296ed5277ca66f8d19'
p210
aa(lp211
S'usr/pkg/man/man3/set_field_fore.3'
p212
aS'2557ef8194aecb951db463e9b53ed7e5'
p213
aa(lp214
S'usr/pkg/man/man3/get_wstr.3'
p215
aS'ed418c39530e53d9a630de36b4fd2a1c'
p216
aa(lp217
S'usr/pkg/man/man3/curl_easy_pause.3'
p218
aS'82bf9fbe455ca6ed2c9980680ff94fe8'
p219
aa(lp220
S'usr/pkg/man/man3/curs_attr.3'
p221
aS'5acfc3c1f8bfde79b2736eeb40df841b'
p222
aa(lp223
S'usr/pkg/man/man3/dynamic_field_info.3'
p224
aS'0ac9e8786b9d3fda3d039ee2a8d96431'
p225
aa(lp226
S'usr/pkg/man/man3/getmouse.3'
p227
aS'eb2463166da777eeb23dd74296db3a86'
p228
aa(lp229
S'usr/pkg/man/man3/curl_strequal.3'
p230
aS'7ac08b5e23a3340ada8fc521df82c5eb'
p231
aa(lp232
S'usr/pkg/man/man3/curl_easy_perform.3'
p233
aS'516b3636392d7b4cb629d5f4cb6c291e'
p234
aa(lp235
S'usr/pkg/man/man3/get_wch.3'
p236
aS'33036663befb046b7132aa4deaa5e60b'
p237
aa(lp238
S'usr/pkg/man/man3/current_field.3'
p239
aS'ef0c3e1b1122658131d52fbc4e0e2d1d'
p240
aa(lp241
S'usr/pkg/man/man3/menu_win.3'
p242
aS'afdcb265eddaff3c182ce62a6afab43b'
p243
aa(lp244
S'usr/pkg/man/man3/getparx.3'
p245
aS'266941af0c00577505eaff3b671a2947'
p246
aa(lp247
S'usr/pkg/man/man3/wattr_off.3'
p248
aS'5acfc3c1f8bfde79b2736eeb40df841b'
p249
aa(lp250
S'usr/pkg/man/man3/set_menu_fore.3'
p251
aS'a4e735db41dfb75078f160fe231e204c'
p252
aa(lp253
S'usr/pkg/man/man3/meta.3'
p254
aS'f9617a31df8a124c5fb2851b8be2cdb3'
p255
aa(lp256
S'usr/pkg/man/man3/set_field_userptr.3'
p257
aS'c7ddb0f331c8118afd7c17935df3c60c'
p258
aa(lp259
S'usr/pkg/man/man3/curl_formget.3'
p260
aS'c323b2569bf04d27eec91b434929d9eb'
p261
aa(lp262
S'usr/pkg/man/man3/replace_panel.3'
p263
aS'7ad0d67d24641e311802c9fdb9c7c979'
p264
aa(lp265
S'usr/pkg/man/man3/set_menu_spacing.3'
p266
aS'8ce7561ae9ea2bf4175bfd9349fd3f24'
p267
aa(lp268
S'usr/pkg/man/man3/resize_term.3'
p269
aS'a41784d0e569df7a9c46a916b8e381ac'
p270
aa(lp271
S'usr/pkg/man/man3/untouchwin.3'
p272
aS'2a4e03f749cdf0b0b51b185dd855aeba'
p273
aa(lp274
S'usr/pkg/man/man3/mvget_wch.3'
p275
aS'33036663befb046b7132aa4deaa5e60b'
p276
aa(lp277
S'usr/pkg/man/man3/form_driver.3'
p278
aS'112427c2c68f5b53adcd0c8422317d8d'
p279
aa(lp280
S'usr/pkg/man/man3/mvinnstr.3'
p281
aS'4459fbf20b7a9e9c9ce7565518b6ee6b'
p282
aa(lp283
S'usr/pkg/man/man3/wvline.3'
p284
aS'64157d6eee0cf3b56a8627fa3a1e0499'
p285
aa(lp286
S'usr/pkg/man/man3/standend.3'
p287
aS'5acfc3c1f8bfde79b2736eeb40df841b'
p288
aa(lp289
S'usr/pkg/man/man3/wattr_on.3'
p290
aS'5acfc3c1f8bfde79b2736eeb40df841b'
p291
aa(lp292
S'usr/pkg/man/man3/use_window.3'
p293
aS'ba4a7f6eef5cd00418196fbea73aafc8'
p294
aa(lp295
S'usr/pkg/man/man3/refresh.3'
p296
aS'd217492e213e3ca3a35e2af429066fb6'
p297
aa(lp298
S'usr/pkg/man/man3/use_default_colors.3'
p299
aS'c2a6a4076548baf553b9509f8571eaca'
p300
aa(lp301
S'usr/pkg/man/man3/curl_share_init.3'
p302
aS'de46bd29b2fec5ffec53f64478e68211'
p303
aa(lp304
S'usr/pkg/man/man3/stringprep_profile.3'
p305
aS'86f4f52793d92db8eb9f3cc5ef7db863'
p306
aa(lp307
S'usr/pkg/man/man3/clear.3'
p308
aS'd2c094eb03741c9558b9b9f7891baf2a'
p309
aa(lp310
S'usr/pkg/man/man3/post_form.3'
p311
aS'4ca8f16b6929528344b71186f3423217'
p312
aa(lp313
S'usr/pkg/man/man3/stringprep_convert.3'
p314
aS'e1cb48d25297be1db05d5392504e5b23'
p315
aa(lp316
S'usr/pkg/man/man3/menu.3'
p317
aS'ab8037183ef7bab9cdad084d353bf3c6'
p318
aa(lp319
S'usr/pkg/man/man3/scr_dump.3'
p320
aS'cb92c8f2d2b594cd8d173e6b663822b3'
p321
aa(lp322
S'usr/pkg/man/man3/wbkgrnd.3'
p323
aS'96d5804df8184c677abea8f5b78b1353'
p324
aa(lp325
S'usr/pkg/man/man3/del_curterm.3'
p326
aS'b2638e52f9febf002348d703013979f4'
p327
aa(lp328
S'usr/pkg/man/man3/delscreen.3'
p329
aS'834e070545a142762f74e04ad94087b3'
p330
aa(lp331
S'usr/pkg/man/man3/set_term.3'
p332
aS'834e070545a142762f74e04ad94087b3'
p333
aa(lp334
S'usr/pkg/man/man3/def_shell_mode.3'
p335
aS'80fbd26c200512e1d4a77e181d7a00db'
p336
aa(lp337
S'usr/pkg/man/man3/set_field_buffer.3'
p338
aS'e82f6cea5812a5fc19f2f112ddf51c90'
p339
aa(lp340
S'usr/pkg/man/man3/copywin.3'
p341
aS'ca22b5ba3d33f1d77253a81b22befabf'
p342
aa(lp343
S'usr/pkg/man/man3/gettext.3'
p344
aS'ab796b2ac5f2f8c996351cb8368c2d5c'
p345
aa(lp346
S'usr/pkg/man/man3/mvins_wstr.3'
p347
aS'a3f2e16bc5c018e233b66375d0b77d1f'
p348
aa(lp349
S'usr/pkg/man/man3/slk_noutrefresh.3'
p350
aS'621e752a9f8a1d85320c4b56e6a46dd7'
p351
aa(lp352
S'usr/pkg/man/man3/leaveok.3'
p353
aS'5128449a71b94b88dd905303340b9cc6'
p354
aa(lp355
S'usr/pkg/man/man3/attron.3'
p356
aS'5acfc3c1f8bfde79b2736eeb40df841b'
p357
aa(lp358
S'usr/pkg/man/man3/color_set.3'
p359
aS'5acfc3c1f8bfde79b2736eeb40df841b'
p360
aa(lp361
S'usr/pkg/man/man3/form_field_validation.3'
p362
aS'48192b92e0379da376c0f5862f2ca2c2'
p363
aa(lp364
S'usr/pkg/man/man3/getmaxx.3'
p365
aS'266941af0c00577505eaff3b671a2947'
p366
aa(lp367
S'usr/pkg/man/man3/curs_threads.3'
p368
aS'ba4a7f6eef5cd00418196fbea73aafc8'
p369
aa(lp370
S'usr/pkg/man/man3/mvgetstr.3'
p371
aS'ac20cde1e417b3f01ad53b995dd729d4'
p372
aa(lp373
S'usr/pkg/man/man3/data_behind.3'
p374
aS'b36f0c610d337aa1abd9fa50737246b7'
p375
aa(lp376
S'usr/pkg/man/man3/wvline_set.3'
p377
aS'4ff9ed1d8587304547fafe611efafa9a'
p378
aa(lp379
S'usr/pkg/man/man3/curl_multi_remove_handle.3'
p380
aS'4dc28bea980863f84acf7ec55797540a'
p381
aa(lp382
S'usr/pkg/man/man3/vline_set.3'
p383
aS'4ff9ed1d8587304547fafe611efafa9a'
p384
aa(lp385
S'usr/pkg/man/man3/has_key.3'
p386
aS'ddd3e91294b76a26124204f5d2da2ab8'
p387
aa(lp388
S'usr/pkg/man/man3/mvwaddnwstr.3'
p389
aS'01d46438c8299ac58ace1bbfaa0c55eb'
p390
aa(lp391
S'usr/pkg/man/man3/top_panel.3'
p392
aS'7ad0d67d24641e311802c9fdb9c7c979'
p393
aa(lp394
S'usr/pkg/man/man3/mvins_nwstr.3'
p395
aS'a3f2e16bc5c018e233b66375d0b77d1f'
p396
aa(lp397
S'usr/pkg/man/man3/can_change_color.3'
p398
aS'2974f31c38a8f500c2de582763d1b968'
p399
aa(lp400
S'usr/pkg/man/man3/form_opts_on.3'
p401
aS'43be5574fb8dd5e33a00e769cac322e7'
p402
aa(lp403
S'usr/pkg/man/man3/mitem_visible.3'
p404
aS'03322ea0f498a7b763fc3665059047d3'
p405
aa(lp406
S'usr/pkg/man/man3/beep.3'
p407
aS'cc6cf42a83f8a9ea29015ef984c79764'
p408
aa(lp409
S'usr/pkg/man/man3/new_fieldtype.3'
p410
aS'60de02012dc9b87261096a695523afcc'
p411
aa(lp412
S'usr/pkg/man/man3/curs_bkgd.3'
p413
aS'0eb2cca33211b8a9f90b9487d4886a28'
p414
aa(lp415
S'usr/pkg/man/man3/mitem_value.3'
p416
aS'8b697ce238db0c519de76fff1e9fd04f'
p417
aa(lp418
S'usr/pkg/man/man3/set_menu_init.3'
p419
aS'db77d6308aa550f1cc21f2171848fe05'
p420
aa(lp421
S'usr/pkg/man/man3/curl_multi_add_handle.3'
p422
aS'4da7144764c9173c91c08af0db55d5f5'
p423
aa(lp424
S'usr/pkg/man/man3/is_syncok.3'
p425
aS'cbe262815ccffb74b84cc02fb32c6ac5'
p426
aa(lp427
S'usr/pkg/man/man3/inwstr.3'
p428
aS'4f629499a3a078d6b5240f0929556bf3'
p429
aa(lp430
S'usr/pkg/man/man3/box.3'
p431
aS'64157d6eee0cf3b56a8627fa3a1e0499'
p432
aa(lp433
S'usr/pkg/man/man3/term_attrs.3'
p434
aS'e115556a2452a85222de82b37d689714'
p435
aa(lp436
S'usr/pkg/man/man3/set_fieldtype_choice.3'
p437
aS'60de02012dc9b87261096a695523afcc'
p438
aa(lp439
S'usr/pkg/man/man3/curl_share_setopt.3'
p440
aS'20327f5adc3bdcdad5411feaa421c179'
p441
aa(lp442
S'usr/pkg/man/man3/waddstr.3'
p443
aS'1bd3c9aed7f6980d4ba174f74a0a7f63'
p444
aa(lp445
S'usr/pkg/man/man3/wgetn_wstr.3'
p446
aS'ed418c39530e53d9a630de36b4fd2a1c'
p447
aa(lp448
S'usr/pkg/man/man3/field_status.3'
p449
aS'e82f6cea5812a5fc19f2f112ddf51c90'
p450
aa(lp451
S'usr/pkg/man/man3/border.3'
p452
aS'64157d6eee0cf3b56a8627fa3a1e0499'
p453
aa(lp454
S'usr/pkg/man/man3/set_form_win.3'
p455
aS'7b716e02433d8456462d3d8ea728097d'
p456
aa(lp457
S'usr/pkg/man/man3/move_field.3'
p458
aS'e8799a078bdfaa4ea49afd853e432ff0'
p459
aa(lp460
S'usr/pkg/man/man3/item_opts_off.3'
p461
aS'8d752108e6979a9df534325232899d00'
p462
aa(lp463
S'usr/pkg/man/man3/clrtoeol.3'
p464
aS'd2c094eb03741c9558b9b9f7891baf2a'
p465
aa(lp466
S'usr/pkg/man/man3/mvwin_wchstr.3'
p467
aS'89ee10dc94a737157c0b91c374df6e5c'
p468
aa(lp469
S'usr/pkg/man/man3/initscr.3'
p470
aS'834e070545a142762f74e04ad94087b3'
p471
aa(lp472
S'usr/pkg/man/man3/is_linetouched.3'
p473
aS'2a4e03f749cdf0b0b51b185dd855aeba'
p474
aa(lp475
S'usr/pkg/man/man3/curs_in_wchstr.3'
p476
aS'89ee10dc94a737157c0b91c374df6e5c'
p477
aa(lp478
S'usr/pkg/man/man3/mvaddnwstr.3'
p479
aS'01d46438c8299ac58ace1bbfaa0c55eb'
p480
aa(lp481
S'usr/pkg/man/man3/field_init.3'
p482
aS'518d12472fcc073892cad6923ad6c1bc'
p483
aa(lp484
S'usr/pkg/man/man3/inchnstr.3'
p485
aS'0f29ab49693f3e552f1794ba0e552526'
p486
aa(lp487
S'usr/pkg/man/man3/stringprep_4i.3'
p488
aS'd0919c84ab5cd569381e790ae40dbe99'
p489
aa(lp490
S'usr/pkg/man/man3/halfdelay.3'
p491
aS'f9617a31df8a124c5fb2851b8be2cdb3'
p492
aa(lp493
S'usr/pkg/man/man3/wget_wch.3'
p494
aS'33036663befb046b7132aa4deaa5e60b'
p495
aa(lp496
S'usr/pkg/man/man3/chgat.3'
p497
aS'5acfc3c1f8bfde79b2736eeb40df841b'
p498
aa(lp499
S'usr/pkg/man/man3/mvwinsch.3'
p500
aS'9d67c3412869e2a0b067054ad3b2556f'
p501
aa(lp502
S'usr/pkg/man/man3/wunctrl.3'
p503
aS'1d97c2db25f7854814dbc09a8580ce5f'
p504
aa(lp505
S'usr/pkg/man/man3/subpad.3'
p506
aS'eed468c64f4210d5de2549933a8303b8'
p507
aa(lp508
S'usr/pkg/man/man3/mvinsnstr.3'
p509
aS'6ba1fe0ea910c755c420a835a462a161'
p510
aa(lp511
S'usr/pkg/man/man3/menu_opts_on.3'
p512
aS'3535b823f3ce146b111da838080345b0'
p513
aa(lp514
S'usr/pkg/man/man3/item_index.3'
p515
aS'e0552a194d7f579d33496bfac1df11d4'
p516
aa(lp517
S'usr/pkg/man/man3/stringprep_ucs4_to_utf8.3'
p518
aS'0d40e53b9484d8cebd41d883ac5844f3'
p519
aa(lp520
S'usr/pkg/man/man3/ncurses.3'
p521
aS'b528fe21036a1f9620a79541b7186397'
p522
aa(lp523
S'usr/pkg/man/man3/libpng.3'
p524
aS'4948810510278da240f281ed3d4dd530'
p525
aa(lp526
S'usr/pkg/man/man3/slk_clear.3'
p527
aS'621e752a9f8a1d85320c4b56e6a46dd7'
p528
aa(lp529
S'usr/pkg/man/man3/wadd_wchstr.3'
p530
aS'4cd3312976ed3fdcb407e5696531c995'
p531
aa(lp532
S'usr/pkg/man/man3/waddwstr.3'
p533
aS'01d46438c8299ac58ace1bbfaa0c55eb'
p534
aa(lp535
S'usr/pkg/man/man3/set_field_type.3'
p536
aS'48192b92e0379da376c0f5862f2ca2c2'
p537
aa(lp538
S'usr/pkg/man/man3/mvwinsnstr.3'
p539
aS'6ba1fe0ea910c755c420a835a462a161'
p540
aa(lp541
S'usr/pkg/man/man3/curl_multi_assign.3'
p542
aS'bea50f86a37788300c0c9e754382a9f7'
p543
aa(lp544
S'usr/pkg/man/man3/waddch.3'
p545
aS'fc368078ad52f0b552edfc13d2448004'
p546
aa(lp547
S'usr/pkg/man/man3/set_form_init.3'
p548
aS'518d12472fcc073892cad6923ad6c1bc'
p549
aa(lp550
S'usr/pkg/man/man3/overlay.3'
p551
aS'ca22b5ba3d33f1d77253a81b22befabf'
p552
aa(lp553
S'usr/pkg/man/man3/link_fieldtype.3'
p554
aS'60de02012dc9b87261096a695523afcc'
p555
aa(lp556
S'usr/pkg/man/man3/mvin_wchnstr.3'
p557
aS'89ee10dc94a737157c0b91c374df6e5c'
p558
aa(lp559
S'usr/pkg/man/man3/flushinp.3'
p560
aS'1d97c2db25f7854814dbc09a8580ce5f'
p561
aa(lp562
S'usr/pkg/man/man3/curl_easy_init.3'
p563
aS'284b1672602ff99c7152db688b27b233'
p564
aa(lp565
S'usr/pkg/man/man3/curs_border.3'
p566
aS'64157d6eee0cf3b56a8627fa3a1e0499'
p567
aa(lp568
S'usr/pkg/man/man3/idna_to_ascii_lz.3'
p569
aS'0f01bcbdc11f4bdc1c0734ce263fd1e9'
p570
aa(lp571
S'usr/pkg/man/man3/innstr.3'
p572
aS'4459fbf20b7a9e9c9ce7565518b6ee6b'
p573
aa(lp574
S'usr/pkg/man/man3/idna_to_ascii_4z.3'
p575
aS'61a42c4ad5973d06b71746b31c3cd404'
p576
aa(lp577
S'usr/pkg/man/man3/item_userptr.3'
p578
aS'f5236eecf25361519e8437fbbacc2353'
p579
aa(lp580
S'usr/pkg/man/man3/stringprep.3'
p581
aS'33dd99d67f58fffd33cd219db1b7a8bb'
p582
aa(lp583
S'usr/pkg/man/man3/menu_userptr.3'
p584
aS'6d51b9833bb66696c4277f5b0c6a2f46'
p585
aa(lp586
S'usr/pkg/man/man3/getn_wstr.3'
p587
aS'ed418c39530e53d9a630de36b4fd2a1c'
p588
aa(lp589
S'usr/pkg/man/man3/curl_multi_socket_action.3'
p590
aS'de9a58cffe1271a2c636dce7b3e628ef'
p591
aa(lp592
S'usr/pkg/man/man3/curs_scanw.3'
p593
aS'605bf239e7e3ea8b3ea10c8554ffbd8a'
p594
aa(lp595
S'usr/pkg/man/man3/wscanw.3'
p596
aS'605bf239e7e3ea8b3ea10c8554ffbd8a'
p597
aa(lp598
S'usr/pkg/man/man3/mvadd_wch.3'
p599
aS'2d063781291e685cbbfcb9715737be5a'
p600
aa(lp601
S'usr/pkg/man/man3/form_request_by_name.3'
p602
aS'0045ada1d7ea06b9bb8efb52b81d87f8'
p603
aa(lp604
S'usr/pkg/man/man3/menu_new.3'
p605
aS'74dd1e0debf0de6c609f8399ef1e6edb'
p606
aa(lp607
S'usr/pkg/man/man3/set_menu_items.3'
p608
aS'c1f25fd68b3dd1aceeb0eacace01b664'
p609
aa(lp610
S'usr/pkg/man/man3/curl_easy_reset.3'
p611
aS'60d5eb9d3ca35ff7a689704fb0c894f7'
p612
aa(lp613
S'usr/pkg/man/man3/curs_refresh.3'
p614
aS'd217492e213e3ca3a35e2af429066fb6'
p615
aa(lp616
S'usr/pkg/man/man3/stringprep_check_version.3'
p617
aS'f81baa35abad24384853a5c82923362c'
p618
aa(lp619
S'usr/pkg/man/man3/set_field_just.3'
p620
aS'2bd54b1aff8b663100a3196d9b0f0eed'
p621
aa(lp622
S'usr/pkg/man/man3/slk_attron.3'
p623
aS'621e752a9f8a1d85320c4b56e6a46dd7'
p624
aa(lp625
S'usr/pkg/man/man3/mvwin_wch.3'
p626
aS'35d9d28b4cb47c2f8e3113a89929b843'
p627
aa(lp628
S'usr/pkg/man/man3/stringprep_utf8_to_unichar.3'
p629
aS'c503567adbd7e7df843c135a18abfcc4'
p630
aa(lp631
S'usr/pkg/man/man3/add_wch.3'
p632
aS'2d063781291e685cbbfcb9715737be5a'
p633
aa(lp634
S'usr/pkg/man/man3/scrl.3'
p635
aS'e4ccb3178820fb2d13d203c2130cdaf3'
p636
aa(lp637
S'usr/pkg/man/man3/setupterm.3'
p638
aS'b2638e52f9febf002348d703013979f4'
p639
aa(lp640
S'usr/pkg/man/man3/termattrs.3'
p641
aS'e115556a2452a85222de82b37d689714'
p642
aa(lp643
S'usr/pkg/man/man3/tld_get_z.3'
p644
aS'7ea6a95186088e85eab0a2c939e924a1'
p645
aa(lp646
S'usr/pkg/man/man3/intrflush.3'
p647
aS'f9617a31df8a124c5fb2851b8be2cdb3'
p648
aa(lp649
S'usr/pkg/man/man3/wadd_wchnstr.3'
p650
aS'4cd3312976ed3fdcb407e5696531c995'
p651
aa(lp652
S'usr/pkg/man/man3/tgetent.3'
p653
aS'def1652e111c9057aae0e1f309ac8dc2'
p654
aa(lp655
S'usr/pkg/man/man3/curs_legacy.3'
p656
aS'266941af0c00577505eaff3b671a2947'
p657
aa(lp658
S'usr/pkg/man/man3/mouseinterval.3'
p659
aS'eb2463166da777eeb23dd74296db3a86'
p660
aa(lp661
S'usr/pkg/man/man3/curl_multi_socket.3'
p662
aS'283c118709569a27f1e2035e48f1bf20'
p663
aa(lp664
S'usr/pkg/man/man3/waddnwstr.3'
p665
aS'01d46438c8299ac58ace1bbfaa0c55eb'
p666
aa(lp667
S'usr/pkg/man/man3/tld_check_4.3'
p668
aS'1eb78735ef5054138638635b3810cc27'
p669
aa(lp670
S'usr/pkg/man/man3/set_field_pad.3'
p671
aS'2557ef8194aecb951db463e9b53ed7e5'
p672
aa(lp673
S'usr/pkg/man/man3/iconv.3'
p674
aS'dfb56235b5ed6045d6d605506c51b58d'
p675
aa(lp676
S'usr/pkg/man/man3/wmove.3'
p677
aS'9011b556d78d470c281b1df90d6cef44'
p678
aa(lp679
S'usr/pkg/man/man3/curl_unescape.3'
p680
aS'fe25c53b1cce3afbd723c26d14793846'
p681
aa(lp682
S'usr/pkg/man/man3/getbegy.3'
p683
aS'266941af0c00577505eaff3b671a2947'
p684
aa(lp685
S'usr/pkg/man/man3/mitem_current.3'
p686
aS'e0552a194d7f579d33496bfac1df11d4'
p687
aa(lp688
S'usr/pkg/man/man3/curs_deleteln.3'
p689
aS'76d4d354076e2131371b0564289bbb0d'
p690
aa(lp691
S'usr/pkg/man/man3/wins_wch.3'
p692
aS'e838e8322fcb6cc8db623179ba041196'
p693
aa(lp694
S'usr/pkg/man/man3/getparyx.3'
p695
aS'177fd695b50ead946462eff79c853e87'
p696
aa(lp697
S'usr/pkg/man/man3/curs_terminfo.3'
p698
aS'b2638e52f9febf002348d703013979f4'
p699
aa(lp700
S'usr/pkg/man/man3/pechochar.3'
p701
aS'eed468c64f4210d5de2549933a8303b8'
p702
aa(lp703
S'usr/pkg/man/man3/waddchstr.3'
p704
aS'00e937723d0a653f41a411cda0cce2e4'
p705
aa(lp706
S'usr/pkg/man/man3/libcurl-errors.3'
p707
aS'4b0b4c34da86427d3f51778b74f6ecd0'
p708
aa(lp709
S'usr/pkg/man/man3/keyname.3'
p710
aS'1d97c2db25f7854814dbc09a8580ce5f'
p711
aa(lp712
S'usr/pkg/man/man3/set_item_value.3'
p713
aS'8b697ce238db0c519de76fff1e9fd04f'
p714
aa(lp715
S'usr/pkg/man/man3/use_env.3'
p716
aS'1d97c2db25f7854814dbc09a8580ce5f'
p717
aa(lp718
S'usr/pkg/man/man3/_tracef.3'
p719
aS'5b1a4d120b996b296ed5277ca66f8d19'
p720
aa(lp721
S'usr/pkg/man/man3/tld_check_4tz.3'
p722
aS'658a25749c3b8ca5bd964f15e2dda72c'
p723
aa(lp724
S'usr/pkg/man/man3/curl_version_info.3'
p725
aS'570405de3416b561c7736245b62af872'
p726
aa(lp727
S'usr/pkg/man/man3/readline.3'
p728
aS'1fd680d5267e23645d638f952ffcb43c'
p729
aa(lp730
S'usr/pkg/man/man3/printw.3'
p731
aS'35663d4cd8e23e01440ab38f867cc372'
p732
aa(lp733
S'usr/pkg/man/man3/mvin_wchstr.3'
p734
aS'89ee10dc94a737157c0b91c374df6e5c'
p735
aa(lp736
S'usr/pkg/man/man3/panel.3'
p737
aS'7ad0d67d24641e311802c9fdb9c7c979'
p738
aa(lp739
S'usr/pkg/man/man3/curs_get_wstr.3'
p740
aS'ed418c39530e53d9a630de36b4fd2a1c'
p741
aa(lp742
S'usr/pkg/man/man3/hide_panel.3'
p743
aS'7ad0d67d24641e311802c9fdb9c7c979'
p744
aa(lp745
S'usr/pkg/man/man3/item_opts.3'
p746
aS'8d752108e6979a9df534325232899d00'
p747
aa(lp748
S'usr/pkg/man/man3/tgetflag.3'
p749
aS'def1652e111c9057aae0e1f309ac8dc2'
p750
aa(lp751
S'usr/pkg/man/man3/doupdate.3'
p752
aS'd217492e213e3ca3a35e2af429066fb6'
p753
aa(lp754
S'usr/pkg/man/man3/is_idlok.3'
p755
aS'cbe262815ccffb74b84cc02fb32c6ac5'
p756
aa(lp757
S'usr/pkg/man/man3/curs_inch.3'
p758
aS'c59b3c6fc915d5d5fafff0660c9452db'
p759
aa(lp760
S'usr/pkg/man/man3/form_field_info.3'
p761
aS'0ac9e8786b9d3fda3d039ee2a8d96431'
p762
aa(lp763
S'usr/pkg/man/man3/punycode_decode.3'
p764
aS'd32463470b24bbccef9669633367a9b8'
p765
aa(lp766
S'usr/pkg/man/man3/mvwget_wstr.3'
p767
aS'ed418c39530e53d9a630de36b4fd2a1c'
p768
aa(lp769
S'usr/pkg/man/man3/slk_attr.3'
p770
aS'621e752a9f8a1d85320c4b56e6a46dd7'
p771
aa(lp772
S'usr/pkg/man/man3/savetty.3'
p773
aS'80fbd26c200512e1d4a77e181d7a00db'
p774
aa(lp775
S'usr/pkg/man/man3/wdeleteln.3'
p776
aS'76d4d354076e2131371b0564289bbb0d'
p777
aa(lp778
S'usr/pkg/man/man3/item_description.3'
p779
aS'301af19cf3653d71edd28fe20a032851'
p780
aa(lp781
S'usr/pkg/man/man3/form_userptr.3'
p782
aS'f7cf3ee15b151d4f897bae6741f3f5c8'
p783
aa(lp784
S'usr/pkg/man/man3/unget_wch.3'
p785
aS'33036663befb046b7132aa4deaa5e60b'
p786
aa(lp787
S'usr/pkg/man/man3/set_menu_back.3'
p788
aS'a4e735db41dfb75078f160fe231e204c'
p789
aa(lp790
S'usr/pkg/man/man3/mvwgetnstr.3'
p791
aS'ac20cde1e417b3f01ad53b995dd729d4'
p792
aa(lp793
S'usr/pkg/man/man3/curl_formadd.3'
p794
aS'4338dd4345d3405ebef8b834a9568eb7'
p795
aa(lp796
S'usr/pkg/man/man3/wchgat.3'
p797
aS'5acfc3c1f8bfde79b2736eeb40df841b'
p798
aa(lp799
S'usr/pkg/man/man3/form_post.3'
p800
aS'4ca8f16b6929528344b71186f3423217'
p801
aa(lp802
S'usr/pkg/man/man3/dcngettext.3'
p803
aS'94ad3622edac940d01fb28694f4dc1b5'
p804
aa(lp805
S'usr/pkg/man/man3/mvwadd_wch.3'
p806
aS'2d063781291e685cbbfcb9715737be5a'
p807
aa(lp808
S'usr/pkg/man/man3/curl_slist_free_all.3'
p809
aS'1f129f06ae98d5ca660d32d7bf3ac167'
p810
aa(lp811
S'usr/pkg/man/man3/prefresh.3'
p812
aS'eed468c64f4210d5de2549933a8303b8'
p813
aa(lp814
S'usr/pkg/man/man3/wattroff.3'
p815
aS'5acfc3c1f8bfde79b2736eeb40df841b'
p816
aa(lp817
S'usr/pkg/man/man3/noraw.3'
p818
aS'f9617a31df8a124c5fb2851b8be2cdb3'
p819
aa(lp820
S'usr/pkg/man/man3/field_opts_off.3'
p821
aS'4a8faa3ae8faa178ac7e7c9ce30f09d4'
p822
aa(lp823
S'usr/pkg/man/man3/mvadd_wchstr.3'
p824
aS'4cd3312976ed3fdcb407e5696531c995'
p825
aa(lp826
S'usr/pkg/man/man3/curs_addwstr.3'
p827
aS'01d46438c8299ac58ace1bbfaa0c55eb'
p828
aa(lp829
S'usr/pkg/man/man3/whline_set.3'
p830
aS'4ff9ed1d8587304547fafe611efafa9a'
p831
aa(lp832
S'usr/pkg/man/man3/form_init.3'
p833
aS'518d12472fcc073892cad6923ad6c1bc'
p834
aa(lp835
S'usr/pkg/man/man3/panel_hidden.3'
p836
aS'7ad0d67d24641e311802c9fdb9c7c979'
p837
aa(lp838
S'usr/pkg/man/man3/form_data.3'
p839
aS'b36f0c610d337aa1abd9fa50737246b7'
p840
aa(lp841
S'usr/pkg/man/man3/history.3'
p842
aS'bb95629b68d044fd35f20b83eb2f0510'
p843
aa(lp844
S'usr/pkg/man/man3/iconv_close.3'
p845
aS'daf76645e3c7cb2cccb3c8ea4840d323'
p846
aa(lp847
S'usr/pkg/man/man3/libxml.3'
p848
aS'21053762e5a7879cec837e95e7f94e3e'
p849
aa(lp850
S'usr/pkg/man/man3/panel_above.3'
p851
aS'7ad0d67d24641e311802c9fdb9c7c979'
p852
aa(lp853
S'usr/pkg/man/man3/raw.3'
p854
aS'f9617a31df8a124c5fb2851b8be2cdb3'
p855
aa(lp856
S'usr/pkg/man/man3/redrawwin.3'
p857
aS'd217492e213e3ca3a35e2af429066fb6'
p858
aa(lp859
S'usr/pkg/man/man3/pr29_strerror.3'
p860
aS'e7345833cfcf3a243d2a2692dec8fd4a'
p861
aa(lp862
S'usr/pkg/man/man3/menu_request_by_name.3'
p863
aS'1367c50915ad4a6375cd8a921ccab607'
p864
aa(lp865
S'usr/pkg/man/man3/getbkgd.3'
p866
aS'0eb2cca33211b8a9f90b9487d4886a28'
p867
aa(lp868
S'usr/pkg/man/man3/curl_easy_duphandle.3'
p869
aS'e78b29c969780b1521e24d7c70fbd169'
p870
aa(lp871
S'usr/pkg/man/man3/field_back.3'
p872
aS'2557ef8194aecb951db463e9b53ed7e5'
p873
aa(lp874
S'usr/pkg/man/man3/wstandend.3'
p875
aS'5acfc3c1f8bfde79b2736eeb40df841b'
p876
aa(lp877
S'usr/pkg/man/man3/new_form.3'
p878
aS'47654579195cd448fa779ad1ebbb2a65'
p879
aa(lp880
S'usr/pkg/man/man3/mvwaddch.3'
p881
aS'fc368078ad52f0b552edfc13d2448004'
p882
aa(lp883
S'usr/pkg/man/man3/delch.3'
p884
aS'9d241be9c123e0382075ec92b838db93'
p885
aa(lp886
S'usr/pkg/man/man3/vwscanw.3'
p887
aS'605bf239e7e3ea8b3ea10c8554ffbd8a'
p888
aa(lp889
S'usr/pkg/man/man3/set_field_opts.3'
p890
aS'4a8faa3ae8faa178ac7e7c9ce30f09d4'
p891
aa(lp892
S'usr/pkg/man/man3/mouse_trafo.3'
p893
aS'eb2463166da777eeb23dd74296db3a86'
p894
aa(lp895
S'usr/pkg/man/man3/touchline.3'
p896
aS'2a4e03f749cdf0b0b51b185dd855aeba'
p897
aa(lp898
S'usr/pkg/man/man3/addstr.3'
p899
aS'1bd3c9aed7f6980d4ba174f74a0a7f63'
p900
aa(lp901
S'usr/pkg/man/man3/new_page.3'
p902
aS'e4fafb838e8dabc5dc26486814eff60b'
p903
aa(lp904
S'usr/pkg/man/man3/item_count.3'
p905
aS'c1f25fd68b3dd1aceeb0eacace01b664'
p906
aa(lp907
S'usr/pkg/man/man3/getyx.3'
p908
aS'177fd695b50ead946462eff79c853e87'
p909
aa(lp910
S'usr/pkg/man/man3/notimeout.3'
p911
aS'f9617a31df8a124c5fb2851b8be2cdb3'
p912
aa(lp913
S'usr/pkg/man/man3/wclear.3'
p914
aS'd2c094eb03741c9558b9b9f7891baf2a'
p915
aa(lp916
S'usr/pkg/man/man3/curs_window.3'
p917
aS'566762efd513dfa3c5f8d5dccd59e3af'
p918
aa(lp919
S'usr/pkg/man/man3/set_field_status.3'
p920
aS'e82f6cea5812a5fc19f2f112ddf51c90'
p921
aa(lp922
S'usr/pkg/man/man3/clrtobot.3'
p923
aS'd2c094eb03741c9558b9b9f7891baf2a'
p924
aa(lp925
S'usr/pkg/man/man3/deleteln.3'
p926
aS'76d4d354076e2131371b0564289bbb0d'
p927
aa(lp928
S'usr/pkg/man/man3/field_term.3'
p929
aS'518d12472fcc073892cad6923ad6c1bc'
p930
aa(lp931
S'usr/pkg/man/man3/tigetflag.3'
p932
aS'b2638e52f9febf002348d703013979f4'
p933
aa(lp934
S'usr/pkg/man/man3/unpost_form.3'
p935
aS'4ca8f16b6929528344b71186f3423217'
p936
aa(lp937
S'usr/pkg/man/man3/getmaxyx.3'
p938
aS'177fd695b50ead946462eff79c853e87'
p939
aa(lp940
S'usr/pkg/man/man3/wnoutrefresh.3'
p941
aS'd217492e213e3ca3a35e2af429066fb6'
p942
aa(lp943
S'usr/pkg/man/man3/mvinstr.3'
p944
aS'4459fbf20b7a9e9c9ce7565518b6ee6b'
p945
aa(lp946
S'usr/pkg/man/man3/getch.3'
p947
aS'ddd3e91294b76a26124204f5d2da2ab8'
p948
aa(lp949
S'usr/pkg/man/man3/item_opts_on.3'
p950
aS'8d752108e6979a9df534325232899d00'
p951
aa(lp952
S'usr/pkg/man/man3/start_color.3'
p953
aS'2974f31c38a8f500c2de582763d1b968'
p954
aa(lp955
S'usr/pkg/man/man3/curs_inwstr.3'
p956
aS'4f629499a3a078d6b5240f0929556bf3'
p957
aa(lp958
S'usr/pkg/man/man3/zlib.3'
p959
aS'785dc03452f0508ff0678fba2457e0ba'
p960
aa(lp961
S'usr/pkg/man/man3/curs_scroll.3'
p962
aS'e4ccb3178820fb2d13d203c2130cdaf3'
p963
aa(lp964
S'usr/pkg/man/man3/mvinsstr.3'
p965
aS'6ba1fe0ea910c755c420a835a462a161'
p966
aa(lp967
S'usr/pkg/man/man3/unctrl.3'
p968
aS'1d97c2db25f7854814dbc09a8580ce5f'
p969
aa(lp970
S'usr/pkg/man/man3/curs_touch.3'
p971
aS'2a4e03f749cdf0b0b51b185dd855aeba'
p972
aa(lp973
S'usr/pkg/man/man3/curs_color.3'
p974
aS'2974f31c38a8f500c2de582763d1b968'
p975
aa(lp976
S'usr/pkg/man/man3/menu_fore.3'
p977
aS'a4e735db41dfb75078f160fe231e204c'
p978
aa(lp979
S'usr/pkg/man/man3/immedok.3'
p980
aS'5128449a71b94b88dd905303340b9cc6'
p981
aa(lp982
S'usr/pkg/man/man3/tigetnum.3'
p983
aS'b2638e52f9febf002348d703013979f4'
p984
aa(lp985
S'usr/pkg/man/man3/curl_multi_cleanup.3'
p986
aS'fd945d121a6e129a988de4f4282b115a'
p987
aa(lp988
S'usr/pkg/man/man3/stringprep_unichar_to_utf8.3'
p989
aS'4f6599e4791c1052a9103abf77b30f48'
p990
aa(lp991
S'usr/pkg/man/man3/idna_strerror.3'
p992
aS'3a8c19f7d8f5e277377eb7f9b07e484c'
p993
aa(lp994
S'usr/pkg/man/man3/field_just.3'
p995
aS'2bd54b1aff8b663100a3196d9b0f0eed'
p996
aa(lp997
S'usr/pkg/man/man3/mvgetnstr.3'
p998
aS'ac20cde1e417b3f01ad53b995dd729d4'
p999
aa(lp1000
S'usr/pkg/man/man3/mousemask.3'
p1001
aS'eb2463166da777eeb23dd74296db3a86'
p1002
aa(lp1003
S'usr/pkg/man/man3/curl_mprintf.3'
p1004
aS'd79b4c06fb44cbae3e384c716c64903c'
p1005
aa(lp1006
S'usr/pkg/man/man3/bindtextdomain.3'
p1007
aS'2a810035ca96106eb89e70139389dc9d'
p1008
aa(lp1009
S'usr/pkg/man/man3/set_item_term.3'
p1010
aS'db77d6308aa550f1cc21f2171848fe05'
p1011
aa(lp1012
S'usr/pkg/man/man3/insch.3'
p1013
aS'9d67c3412869e2a0b067054ad3b2556f'
p1014
aa(lp1015
S'usr/pkg/man/man3/getsyx.3'
p1016
aS'80fbd26c200512e1d4a77e181d7a00db'
p1017
aa(lp1018
S'usr/pkg/man/man3/mvwchgat.3'
p1019
aS'5acfc3c1f8bfde79b2736eeb40df841b'
p1020
aa(lp1021
S'usr/pkg/man/man3/curl_global_cleanup.3'
p1022
aS'e92ca9c1ff145196649e2d8be5f295fa'
p1023
aa(lp1024
S'usr/pkg/man/man3/curs_util.3'
p1025
aS'1d97c2db25f7854814dbc09a8580ce5f'
p1026
aa(lp1027
S'usr/pkg/man/man3/slk_init.3'
p1028
aS'621e752a9f8a1d85320c4b56e6a46dd7'
p1029
aa(lp1030
S'usr/pkg/man/man3/set_menu_format.3'
p1031
aS'ed170ed134e55b4b42919972f9ce3029'
p1032
aa(lp1033
S'usr/pkg/man/man3/wtimeout.3'
p1034
aS'f9617a31df8a124c5fb2851b8be2cdb3'
p1035
aa(lp1036
S'usr/pkg/man/man3/wattr_set.3'
p1037
aS'5acfc3c1f8bfde79b2736eeb40df841b'
p1038
aa(lp1039
S'usr/pkg/man/man3/libcurl-share.3'
p1040
aS'b4294d64226a9dfb316a967ff97e7bd1'
p1041
aa(lp1042
S'usr/pkg/man/man3/mvget_wstr.3'
p1043
aS'ed418c39530e53d9a630de36b4fd2a1c'
p1044
aa(lp1045
S'usr/pkg/man/man3/mvaddstr.3'
p1046
aS'1bd3c9aed7f6980d4ba174f74a0a7f63'
p1047
aa(lp1048
S'usr/pkg/man/man3/use_screen.3'
p1049
aS'ba4a7f6eef5cd00418196fbea73aafc8'
p1050
aa(lp1051
S'usr/pkg/man/man3/derwin.3'
p1052
aS'566762efd513dfa3c5f8d5dccd59e3af'
p1053
aa(lp1054
S'usr/pkg/man/man3/field_fore.3'
p1055
aS'2557ef8194aecb951db463e9b53ed7e5'
p1056
aa(lp1057
S'usr/pkg/man/man3/wsyncup.3'
p1058
aS'566762efd513dfa3c5f8d5dccd59e3af'
p1059
aa(lp1060
S'usr/pkg/man/man3/curs_addch.3'
p1061
aS'fc368078ad52f0b552edfc13d2448004'
p1062
aa(lp1063
S'usr/pkg/man/man3/getpary.3'
p1064
aS'266941af0c00577505eaff3b671a2947'
p1065
aa(lp1066
S'usr/pkg/man/man3/idna_to_unicode_4z4z.3'
p1067
aS'b36b9593ebf20524a2461e0856829c56'
p1068
aa(lp1069
S'usr/pkg/man/man3/bkgdset.3'
p1070
aS'0eb2cca33211b8a9f90b9487d4886a28'
p1071
aa(lp1072
S'usr/pkg/man/man3/panel_userptr.3'
p1073
aS'7ad0d67d24641e311802c9fdb9c7c979'
p1074
aa(lp1075
S'usr/pkg/man/man3/scale_menu.3'
p1076
aS'afdcb265eddaff3c182ce62a6afab43b'
p1077
aa(lp1078
S'usr/pkg/man/man3/curl_easy_cleanup.3'
p1079
aS'6e7597bdb75f4c99316e8089a3066420'
p1080
aa(lp1081
S'usr/pkg/man/man3/_nc_freeall.3'
p1082
aS'66b04e3731bd2a96b3a5146ea49d6453'
p1083
aa(lp1084
S'usr/pkg/man/man3/wresize.3'
p1085
aS'5b4ac313e5b58b055db9acded42fd48b'
p1086
aa(lp1087
S'usr/pkg/man/man3/mvwget_wch.3'
p1088
aS'33036663befb046b7132aa4deaa5e60b'
p1089
aa(lp1090
S'usr/pkg/man/man3/curl_escape.3'
p1091
aS'e983558fe028064fcd9a4381d5f8a88a'
p1092
aa(lp1093
S'usr/pkg/man/man3/item_visible.3'
p1094
aS'03322ea0f498a7b763fc3665059047d3'
p1095
aa(lp1096
S'usr/pkg/man/man3/set_panel_userptr.3'
p1097
aS'7ad0d67d24641e311802c9fdb9c7c979'
p1098
aa(lp1099
S'usr/pkg/man/man3/pr29_8z.3'
p1100
aS'ed59ab0f0a754d2c102dcdf502d35517'
p1101
aa(lp1102
S'usr/pkg/man/man3/is_idcok.3'
p1103
aS'cbe262815ccffb74b84cc02fb32c6ac5'
p1104
aa(lp1105
S'usr/pkg/man/man3/wrefresh.3'
p1106
aS'd217492e213e3ca3a35e2af429066fb6'
p1107
aa(lp1108
S'usr/pkg/man/man3/curl_free.3'
p1109
aS'28025274085c90c7913348882b8ab48b'
p1110
aa(lp1111
S'usr/pkg/man/man3/winstr.3'
p1112
aS'4459fbf20b7a9e9c9ce7565518b6ee6b'
p1113
aa(lp1114
S'usr/pkg/man/man3/form_field.3'
p1115
aS'e8799a078bdfaa4ea49afd853e432ff0'
p1116
aa(lp1117
S'usr/pkg/man/man3/curl_multi_info_read.3'
p1118
aS'a2680ebec472b3be49ce64187f897c2b'
p1119
aa(lp1120
S'usr/pkg/man/man3/attr_get.3'
p1121
aS'5acfc3c1f8bfde79b2736eeb40df841b'
p1122
aa(lp1123
S'usr/pkg/man/man3/echo_wchar.3'
p1124
aS'2d063781291e685cbbfcb9715737be5a'
p1125
aa(lp1126
S'usr/pkg/man/man3/libcurl-tutorial.3'
p1127
aS'6be552986a347ace742582aafd36728c'
p1128
aa(lp1129
S'usr/pkg/man/man3/idna_to_ascii_4i.3'
p1130
aS'520e6a7a596746a1a5ba006d03c90ee0'
p1131
aa(lp1132
S'usr/pkg/man/man3/_traceattr.3'
p1133
aS'5b1a4d120b996b296ed5277ca66f8d19'
p1134
aa(lp1135
S'usr/pkg/man/man3/key_defined.3'
p1136
aS'd2ad549e557dbc3d5cbb2107fabb9e4e'
p1137
aa(lp1138
S'usr/pkg/man/man3/free_form.3'
p1139
aS'47654579195cd448fa779ad1ebbb2a65'
p1140
aa(lp1141
S'usr/pkg/man/man3/wclrtobot.3'
p1142
aS'd2c094eb03741c9558b9b9f7891baf2a'
p1143
aa(lp1144
S'usr/pkg/man/man3/curl_multi_perform.3'
p1145
aS'7f174dbea525d49557896d7f923b69c0'
p1146
aa(lp1147
S'usr/pkg/man/man3/win_wchstr.3'
p1148
aS'89ee10dc94a737157c0b91c374df6e5c'
p1149
aa(lp1150
S'usr/pkg/man/man3/tgetnum.3'
p1151
aS'def1652e111c9057aae0e1f309ac8dc2'
p1152
aa(lp1153
S'usr/pkg/man/man3/mvwvline.3'
p1154
aS'64157d6eee0cf3b56a8627fa3a1e0499'
p1155
aa(lp1156
S'usr/pkg/man/man3/field_userptr.3'
p1157
aS'c7ddb0f331c8118afd7c17935df3c60c'
p1158
aa(lp1159
S'usr/pkg/man/man3/overwrite.3'
p1160
aS'ca22b5ba3d33f1d77253a81b22befabf'
p1161
aa(lp1162
S'usr/pkg/man/man3/libcurl.3'
p1163
aS'445c0d8ba6cac1e76f5ebfa63817ab7f'
p1164
aa(lp1165
S'usr/pkg/man/man3/vid_puts.3'
p1166
aS'b2638e52f9febf002348d703013979f4'
p1167
aa(lp1168
S'usr/pkg/man/man3/form_hook.3'
p1169
aS'518d12472fcc073892cad6923ad6c1bc'
p1170
aa(lp1171
S'usr/pkg/man/man3/ffi_call.3'
p1172
aS'dd7b61f56e75a1d052dd10dc02ac4940'
p1173
aa(lp1174
S'usr/pkg/man/man3/item_value.3'
p1175
aS'8b697ce238db0c519de76fff1e9fd04f'
p1176
aa(lp1177
S'usr/pkg/man/man3/free_item.3'
p1178
aS'6ed2177eb1f54dc58213cfdb9cc89182'
p1179
aa(lp1180
S'usr/pkg/man/man3/baudrate.3'
p1181
aS'e115556a2452a85222de82b37d689714'
p1182
aa(lp1183
S'usr/pkg/man/man3/standout.3'
p1184
aS'5acfc3c1f8bfde79b2736eeb40df841b'
p1185
aa(lp1186
S'usr/pkg/man/man3/ins_nwstr.3'
p1187
aS'a3f2e16bc5c018e233b66375d0b77d1f'
p1188
aa(lp1189
S'usr/pkg/man/man3/curs_instr.3'
p1190
aS'4459fbf20b7a9e9c9ce7565518b6ee6b'
p1191
aa(lp1192
S'usr/pkg/man/man3/form_term.3'
p1193
aS'518d12472fcc073892cad6923ad6c1bc'
p1194
aa(lp1195
S'usr/pkg/man/man3/napms.3'
p1196
aS'80fbd26c200512e1d4a77e181d7a00db'
p1197
aa(lp1198
S'usr/pkg/man/man3/mvin_wch.3'
p1199
aS'35d9d28b4cb47c2f8e3113a89929b843'
p1200
aa(lp1201
S'usr/pkg/man/man3/is_nodelay.3'
p1202
aS'cbe262815ccffb74b84cc02fb32c6ac5'
p1203
aa(lp1204
S'usr/pkg/man/man3/slk_refresh.3'
p1205
aS'621e752a9f8a1d85320c4b56e6a46dd7'
p1206
aa(lp1207
S'usr/pkg/man/man3/form_opts.3'
p1208
aS'43be5574fb8dd5e33a00e769cac322e7'
p1209
aa(lp1210
S'usr/pkg/man/man3/default_colors.3'
p1211
aS'c2a6a4076548baf553b9509f8571eaca'
p1212
aa(lp1213
S'usr/pkg/man/man3/idna_to_unicode_lzlz.3'
p1214
aS'1a8ff695ff0da99d4df3c6cb2e8f6e6e'
p1215
aa(lp1216
S'usr/pkg/man/man3/mvwaddchstr.3'
p1217
aS'00e937723d0a653f41a411cda0cce2e4'
p1218
aa(lp1219
S'usr/pkg/man/man3/menu_init.3'
p1220
aS'db77d6308aa550f1cc21f2171848fe05'
p1221
aa(lp1222
S'usr/pkg/man/man3/tld_check_4z.3'
p1223
aS'f4c5b748e1c54bd83b612cd43ea0397f'
p1224
aa(lp1225
S'usr/pkg/man/man3/touchwin.3'
p1226
aS'2a4e03f749cdf0b0b51b185dd855aeba'
p1227
aa(lp1228
S'usr/pkg/man/man3/mvderwin.3'
p1229
aS'566762efd513dfa3c5f8d5dccd59e3af'
p1230
aa(lp1231
S'usr/pkg/man/man3/curs_add_wch.3'
p1232
aS'2d063781291e685cbbfcb9715737be5a'
p1233
aa(lp1234
S'usr/pkg/man/man3/field_pad.3'
p1235
aS'2557ef8194aecb951db463e9b53ed7e5'
p1236
aa(lp1237
S'usr/pkg/man/man3/is_scrollok.3'
p1238
aS'cbe262815ccffb74b84cc02fb32c6ac5'
p1239
aa(lp1240
S'usr/pkg/man/man3/echo.3'
p1241
aS'f9617a31df8a124c5fb2851b8be2cdb3'
p1242
aa(lp1243
S'usr/pkg/man/man3/dngettext.3'
p1244
aS'94ad3622edac940d01fb28694f4dc1b5'
p1245
aa(lp1246
S'usr/pkg/man/man3/libcurl-multi.3'
p1247
aS'5559eab4eefcb865867e35bdb3c82b98'
p1248
aa(lp1249
S'usr/pkg/man/man3/nodelay.3'
p1250
aS'f9617a31df8a124c5fb2851b8be2cdb3'
p1251
aa(lp1252
S'usr/pkg/man/man3/set_form_term.3'
p1253
aS'518d12472fcc073892cad6923ad6c1bc'
p1254
aa(lp1255
S'usr/pkg/man/man3/mvaddchnstr.3'
p1256
aS'00e937723d0a653f41a411cda0cce2e4'
p1257
aa(lp1258
S'usr/pkg/man/man3/insdelln.3'
p1259
aS'76d4d354076e2131371b0564289bbb0d'
p1260
aa(lp1261
S'usr/pkg/man/man3/form_opts_off.3'
p1262
aS'43be5574fb8dd5e33a00e769cac322e7'
p1263
aa(lp1264
S'usr/pkg/man/man3/mvwadd_wchnstr.3'
p1265
aS'4cd3312976ed3fdcb407e5696531c995'
p1266
aa(lp1267
S'usr/pkg/man/man3/wsyncdown.3'
p1268
aS'566762efd513dfa3c5f8d5dccd59e3af'
p1269
aa(lp1270
S'usr/pkg/man/man3/set_fieldtype_arg.3'
p1271
aS'60de02012dc9b87261096a695523afcc'
p1272
aa(lp1273
S'usr/pkg/man/man3/erasewchar.3'
p1274
aS'e115556a2452a85222de82b37d689714'
p1275
aa(lp1276
S'usr/pkg/man/man3/field_opts.3'
p1277
aS'4a8faa3ae8faa178ac7e7c9ce30f09d4'
p1278
aa(lp1279
S'usr/pkg/man/man3/in_wch.3'
p1280
aS'35d9d28b4cb47c2f8e3113a89929b843'
p1281
aa(lp1282
S'usr/pkg/man/man3/mvchgat.3'
p1283
aS'5acfc3c1f8bfde79b2736eeb40df841b'
p1284
aa(lp1285
S'usr/pkg/man/man3/nl.3'
p1286
aS'5128449a71b94b88dd905303340b9cc6'
p1287
aa(lp1288
S'usr/pkg/man/man3/innwstr.3'
p1289
aS'4f629499a3a078d6b5240f0929556bf3'
p1290
aa(lp1291
S'usr/pkg/man/man3/setterm.3'
p1292
aS'b2638e52f9febf002348d703013979f4'
p1293
aa(lp1294
S'usr/pkg/man/man3/mvwinstr.3'
p1295
aS'4459fbf20b7a9e9c9ce7565518b6ee6b'
p1296
aa(lp1297
S'usr/pkg/man/man3/form_field_attributes.3'
p1298
aS'2557ef8194aecb951db463e9b53ed7e5'
p1299
aa(lp1300
S'usr/pkg/man/man3/scrollok.3'
p1301
aS'5128449a71b94b88dd905303340b9cc6'
p1302
aa(lp1303
S'usr/pkg/man/man3/curl_multi_strerror.3'
p1304
aS'0125f14419efdc156e0c6dfc01471446'
p1305
aa(lp1306
S'usr/pkg/man/man3/idna_to_unicode_8z4z.3'
p1307
aS'f5823e5004628ba7ec23843cbe63f66c'
p1308
aa(lp1309
S'usr/pkg/man/man3/inch.3'
p1310
aS'c59b3c6fc915d5d5fafff0660c9452db'
p1311
aa(lp1312
S'usr/pkg/man/man3/set_menu_win.3'
p1313
aS'afdcb265eddaff3c182ce62a6afab43b'
p1314
aa(lp1315
S'usr/pkg/man/man3/set_menu_sub.3'
p1316
aS'afdcb265eddaff3c182ce62a6afab43b'
p1317
aa(lp1318
S'usr/pkg/man/man3/new_panel.3'
p1319
aS'7ad0d67d24641e311802c9fdb9c7c979'
p1320
aa(lp1321
S'usr/pkg/man/man3/box_set.3'
p1322
aS'4ff9ed1d8587304547fafe611efafa9a'
p1323
aa(lp1324
S'usr/pkg/man/man3/mvadd_wchnstr.3'
p1325
aS'4cd3312976ed3fdcb407e5696531c995'
p1326
aa(lp1327
S'usr/pkg/man/man3/insnstr.3'
p1328
aS'6ba1fe0ea910c755c420a835a462a161'
p1329
aa(lp1330
S'usr/pkg/man/man3/vid_attr.3'
p1331
aS'b2638e52f9febf002348d703013979f4'
p1332
aa(lp1333
S'usr/pkg/man/man3/mvwgetn_wstr.3'
p1334
aS'ed418c39530e53d9a630de36b4fd2a1c'
p1335
aa(lp1336
S'usr/pkg/man/man3/wdelch.3'
p1337
aS'9d241be9c123e0382075ec92b838db93'
p1338
aa(lp1339
S'usr/pkg/man/man3/unpost_menu.3'
p1340
aS'cf7092cb13bfd40427ac2ad22bf64671'
p1341
aa(lp1342
S'usr/pkg/man/man3/nofilter.3'
p1343
aS'1d97c2db25f7854814dbc09a8580ce5f'
p1344
aa(lp1345
S'usr/pkg/man/man3/link_field.3'
p1346
aS'4d4a7a758902622cffa6bcde533f1585'
p1347
aa(lp1348
S'usr/pkg/man/man3/is_timeout.3'
p1349
aS'cbe262815ccffb74b84cc02fb32c6ac5'
p1350
aa(lp1351
S'usr/pkg/man/man3/tgetstr.3'
p1352
aS'def1652e111c9057aae0e1f309ac8dc2'
p1353
aa(lp1354
S'usr/pkg/man/man3/vwprintw.3'
p1355
aS'35663d4cd8e23e01440ab38f867cc372'
p1356
aa(lp1357
S'usr/pkg/man/man3/tigetstr.3'
p1358
aS'b2638e52f9febf002348d703013979f4'
p1359
aa(lp1360
S'usr/pkg/man/man3/cbreak.3'
p1361
aS'f9617a31df8a124c5fb2851b8be2cdb3'
p1362
aa(lp1363
S'usr/pkg/man/man3/set_field_term.3'
p1364
aS'518d12472fcc073892cad6923ad6c1bc'
p1365
aa(lp1366
S'usr/pkg/man/man3/iconv_open.3'
p1367
aS'22e712c8d88908881cf9765572e629b1'
p1368
aa(lp1369
S'usr/pkg/man/man3/flash.3'
p1370
aS'cc6cf42a83f8a9ea29015ef984c79764'
p1371
aa(lp1372
S'usr/pkg/man/man3/set_form_fields.3'
p1373
aS'e8799a078bdfaa4ea49afd853e432ff0'
p1374
aa(lp1375
S'usr/pkg/man/man3/idna_to_ascii_8z.3'
p1376
aS'5d35c6734fbf3b90819ee5f16af87fca'
p1377
aa(lp1378
S'usr/pkg/man/man3/wins_nwstr.3'
p1379
aS'a3f2e16bc5c018e233b66375d0b77d1f'
p1380
aa(lp1381
S'usr/pkg/man/man3/nonl.3'
p1382
aS'5128449a71b94b88dd905303340b9cc6'
p1383
aa(lp1384
S'usr/pkg/man/man3/mvaddch.3'
p1385
aS'fc368078ad52f0b552edfc13d2448004'
p1386
aa(lp1387
S'usr/pkg/man/man3/init_pair.3'
p1388
aS'2974f31c38a8f500c2de582763d1b968'
p1389
aa(lp1390
S'usr/pkg/man/man3/wget_wstr.3'
p1391
aS'ed418c39530e53d9a630de36b4fd2a1c'
p1392
aa(lp1393
S'usr/pkg/man/man3/setsyx.3'
p1394
aS'80fbd26c200512e1d4a77e181d7a00db'
p1395
aa(lp1396
S'usr/pkg/man/man3/curs_beep.3'
p1397
aS'cc6cf42a83f8a9ea29015ef984c79764'
p1398
aa(lp1399
S'usr/pkg/man/man3/pr29_4z.3'
p1400
aS'2f6a07c707dbcf7100ec71d962afe4b6'
p1401
aa(lp1402
S'usr/pkg/man/man3/field_opts_on.3'
p1403
aS'4a8faa3ae8faa178ac7e7c9ce30f09d4'
p1404
aa(lp1405
S'usr/pkg/man/man3/winsstr.3'
p1406
aS'6ba1fe0ea910c755c420a835a462a161'
p1407
aa(lp1408
S'usr/pkg/man/man3/mvwaddnstr.3'
p1409
aS'1bd3c9aed7f6980d4ba174f74a0a7f63'
p1410
aa(lp1411
S'usr/pkg/man/man3/wborder_set.3'
p1412
aS'4ff9ed1d8587304547fafe611efafa9a'
p1413
aa(lp1414
S'usr/pkg/man/man3/set_menu_grey.3'
p1415
aS'a4e735db41dfb75078f160fe231e204c'
p1416
aa(lp1417
S'usr/pkg/man/man3/tgoto.3'
p1418
aS'def1652e111c9057aae0e1f309ac8dc2'
p1419
aa(lp1420
S'usr/pkg/man/man3/getmaxy.3'
p1421
aS'266941af0c00577505eaff3b671a2947'
p1422
aa(lp1423
S'usr/pkg/man/man3/trace.3'
p1424
aS'5b1a4d120b996b296ed5277ca66f8d19'
p1425
aa(lp1426
S'usr/pkg/man/man3/getwin.3'
p1427
aS'1d97c2db25f7854814dbc09a8580ce5f'
p1428
aa(lp1429
S'usr/pkg/man/man3/mvwaddstr.3'
p1430
aS'1bd3c9aed7f6980d4ba174f74a0a7f63'
p1431
aa(lp1432
S'usr/pkg/man/man3/ffi_prep_cif.3'
p1433
aS'ba320392aee6dfa2e896e6deb7205815'
p1434
aa(lp1435
S'usr/pkg/man/man3/stringprep_locale_to_utf8.3'
p1436
aS'ee2eab665792b973b4991a3030bb9327'
p1437
aa(lp1438
S'usr/pkg/man/man3/idna_to_unicode_44i.3'
p1439
aS'57bdcf98cb024b04c1564f06dca0eb3f'
p1440
aa(lp1441
S'usr/pkg/man/man3/is_cleared.3'
p1442
aS'cbe262815ccffb74b84cc02fb32c6ac5'
p1443
aa(lp1444
S'usr/pkg/man/man3/curl_easy_setopt.3'
p1445
aS'68b392aff54316146f85f398af85e007'
p1446
aa(lp1447
S'usr/pkg/man/man3/curl_global_init_mem.3'
p1448
aS'd95780f0f8ff0162c867fe8326a39dd5'
p1449
aa(lp1450
S'usr/pkg/man/man3/curs_set.3'
p1451
aS'80fbd26c200512e1d4a77e181d7a00db'
p1452
aa(lp1453
S'usr/pkg/man/man3/wmouse_trafo.3'
p1454
aS'eb2463166da777eeb23dd74296db3a86'
p1455
aa(lp1456
S'usr/pkg/man/man3/set_menu_opts.3'
p1457
aS'3535b823f3ce146b111da838080345b0'
p1458
aa(lp1459
S'usr/pkg/man/man3/slk_attr_on.3'
p1460
aS'621e752a9f8a1d85320c4b56e6a46dd7'
p1461
aa(lp1462
S'usr/pkg/man/man3/mvwins_nwstr.3'
p1463
aS'a3f2e16bc5c018e233b66375d0b77d1f'
p1464
aa(lp1465
S'usr/pkg/man/man3/item_term.3'
p1466
aS'db77d6308aa550f1cc21f2171848fe05'
p1467
aa(lp1468
S'usr/pkg/man/man3/mvgetn_wstr.3'
p1469
aS'ed418c39530e53d9a630de36b4fd2a1c'
p1470
aa(lp1471
S'usr/pkg/man/man3/mvinchnstr.3'
p1472
aS'0f29ab49693f3e552f1794ba0e552526'
p1473
aa(lp1474
S'usr/pkg/man/man3/noecho.3'
p1475
aS'f9617a31df8a124c5fb2851b8be2cdb3'
p1476
aa(lp1477
S'usr/pkg/man/man3/use_extended_names.3'
p1478
aS'705c4519364fc6cf8c7c80aac586c49d'
p1479
aa(lp1480
S'usr/pkg/man/man3/clearok.3'
p1481
aS'5128449a71b94b88dd905303340b9cc6'
p1482
aa(lp1483
S'usr/pkg/man/man3/addchstr.3'
p1484
aS'00e937723d0a653f41a411cda0cce2e4'
p1485
aa(lp1486
S'usr/pkg/man/man3/curl_easy_getinfo.3'
p1487
aS'e550816e2c6fd59bf8a5493a905cdaba'
p1488
aa(lp1489
S'usr/pkg/man/man3/set_tabsize.3'
p1490
aS'ba4a7f6eef5cd00418196fbea73aafc8'
p1491
aa(lp1492
S'usr/pkg/man/man3/panel_window.3'
p1493
aS'7ad0d67d24641e311802c9fdb9c7c979'
p1494
aa(lp1495
S'usr/pkg/man/man3/form_field_opts.3'
p1496
aS'4a8faa3ae8faa178ac7e7c9ce30f09d4'
p1497
aa(lp1498
S'usr/pkg/man/man3/keypad.3'
p1499
aS'f9617a31df8a124c5fb2851b8be2cdb3'
p1500
aa(lp1501
S'usr/pkg/man/man3/curs_slk.3'
p1502
aS'621e752a9f8a1d85320c4b56e6a46dd7'
p1503
aa(lp1504
S'usr/pkg/man/man3/mvgetch.3'
p1505
aS'ddd3e91294b76a26124204f5d2da2ab8'
p1506
aa(lp1507
S'usr/pkg/man/man3/idcok.3'
p1508
aS'5128449a71b94b88dd905303340b9cc6'
p1509
aa(lp1510
S'usr/pkg/man/man3/vline.3'
p1511
aS'64157d6eee0cf3b56a8627fa3a1e0499'
p1512
aa(lp1513
S'usr/pkg/man/man3/form_page.3'
p1514
aS'ef0c3e1b1122658131d52fbc4e0e2d1d'
p1515
aa(lp1516
S'usr/pkg/man/man3/idna_to_unicode_8zlz.3'
p1517
aS'4550ec8cd6dea86134e303aefbe28930'
p1518
aa(lp1519
S'usr/pkg/man/man3/form_new.3'
p1520
aS'47654579195cd448fa779ad1ebbb2a65'
p1521
aa(lp1522
S'usr/pkg/man/man3/winsdelln.3'
p1523
aS'76d4d354076e2131371b0564289bbb0d'
p1524
aa(lp1525
S'usr/pkg/man/man3/instr.3'
p1526
aS'4459fbf20b7a9e9c9ce7565518b6ee6b'
p1527
aa(lp1528
S'usr/pkg/man/man3/in_wchstr.3'
p1529
aS'89ee10dc94a737157c0b91c374df6e5c'
p1530
aa(lp1531
S'usr/pkg/man/man3/subwin.3'
p1532
aS'566762efd513dfa3c5f8d5dccd59e3af'
p1533
aa(lp1534
S'usr/pkg/man/man3/wcolor_set.3'
p1535
aS'5acfc3c1f8bfde79b2736eeb40df841b'
p1536
aa(lp1537
S'usr/pkg/man/man3/form_new_page.3'
p1538
aS'e4fafb838e8dabc5dc26486814eff60b'
p1539
aa(lp1540
S'usr/pkg/man/man3/legacy_coding.3'
p1541
aS'1f0e86902f656d68163745a55b4489b8'
p1542
aa(lp1543
S'usr/pkg/man/man3/wenclose.3'
p1544
aS'eb2463166da777eeb23dd74296db3a86'
p1545
aa(lp1546
S'usr/pkg/man/man3/_tracechar.3'
p1547
aS'5b1a4d120b996b296ed5277ca66f8d19'
p1548
aa(lp1549
S'usr/pkg/man/man3/item_name.3'
p1550
aS'301af19cf3653d71edd28fe20a032851'
p1551
aa(lp1552
S'usr/pkg/man/man3/curs_printw.3'
p1553
aS'35663d4cd8e23e01440ab38f867cc372'
p1554
aa(lp1555
S'usr/pkg/man/man3/keybound.3'
p1556
aS'855bd9acd665a88beb89bea2f69d39b2'
p1557
aa(lp1558
S'usr/pkg/man/man3/winnwstr.3'
p1559
aS'4f629499a3a078d6b5240f0929556bf3'
p1560
aa(lp1561
S'usr/pkg/man/man3/tld_default_table.3'
p1562
aS'cc8e34db52be25142a93274bd7a3b9d2'
p1563
aa(lp1564
S'usr/pkg/man/man3/mvinwstr.3'
p1565
aS'4f629499a3a078d6b5240f0929556bf3'
p1566
aa(lp1567
S'usr/pkg/man/man3/assume_default_colors.3'
p1568
aS'c2a6a4076548baf553b9509f8571eaca'
p1569
aa(lp1570
S'usr/pkg/man/man3/free_fieldtype.3'
p1571
aS'60de02012dc9b87261096a695523afcc'
p1572
aa(lp1573
S'usr/pkg/man/man3/getbkgrnd.3'
p1574
aS'96d5804df8184c677abea8f5b78b1353'
p1575
aa(lp1576
S'usr/pkg/man/man3/insstr.3'
p1577
aS'6ba1fe0ea910c755c420a835a462a161'
p1578
aa(lp1579
S'usr/pkg/man/man3/attr_on.3'
p1580
aS'5acfc3c1f8bfde79b2736eeb40df841b'
p1581
aa(lp1582
S'usr/pkg/man/man3/dcgettext.3'
p1583
aS'20522f0b51fe61b1d40564dbfd679b1e'
p1584
aa(lp1585
S'usr/pkg/man/man3/tld_get_4z.3'
p1586
aS'9d2cedd0dd8aa6543135f170553cc85c'
p1587
aa(lp1588
S'usr/pkg/man/man3/restartterm.3'
p1589
aS'b2638e52f9febf002348d703013979f4'
p1590
aa(lp1591
S'usr/pkg/man/man3/wins_wstr.3'
p1592
aS'a3f2e16bc5c018e233b66375d0b77d1f'
p1593
aa(lp1594
S'usr/pkg/man/man3/mitem_userptr.3'
p1595
aS'f5236eecf25361519e8437fbbacc2353'
p1596
aa(lp1597
S'usr/pkg/man/man3/libexslt.3'
p1598
aS'c7089bab11720e9c9c17962a68c528ff'
p1599
aa(lp1600
S'usr/pkg/man/man3/menu_attributes.3'
p1601
aS'a4e735db41dfb75078f160fe231e204c'
p1602
aa(lp1603
S'usr/pkg/man/man3/curl_version.3'
p1604
aS'91d7c9abc27a7a6e6701cffe83335689'
p1605
aa(lp1606
S'usr/pkg/man/man3/mvinnwstr.3'
p1607
aS'4f629499a3a078d6b5240f0929556bf3'
p1608
aa(lp1609
S'usr/pkg/man/man3/mvwinnwstr.3'
p1610
aS'4f629499a3a078d6b5240f0929556bf3'
p1611
aa(lp1612
S'usr/pkg/man/man3/COLOR_PAIR.3'
p1613
aS'2974f31c38a8f500c2de582763d1b968'
p1614
aa(lp1615
S'usr/pkg/man/man3/scroll.3'
p1616
aS'e4ccb3178820fb2d13d203c2130cdaf3'
p1617
aa(lp1618
S'usr/pkg/man/man3/reset_shell_mode.3'
p1619
aS'80fbd26c200512e1d4a77e181d7a00db'
p1620
aa(lp1621
S'usr/pkg/man/man3/mvwscanw.3'
p1622
aS'605bf239e7e3ea8b3ea10c8554ffbd8a'
p1623
aa(lp1624
S'usr/pkg/man/man3/_tracechtype.3'
p1625
aS'5b1a4d120b996b296ed5277ca66f8d19'
p1626
aa(lp1627
S'usr/pkg/man/man3/set_escdelay.3'
p1628
aS'ba4a7f6eef5cd00418196fbea73aafc8'
p1629
aa(lp1630
S'usr/pkg/man/man3/has_colors.3'
p1631
aS'2974f31c38a8f500c2de582763d1b968'
p1632
aa(lp1633
S'usr/pkg/man/man3/PAIR_NUMBER.3'
p1634
aS'5acfc3c1f8bfde79b2736eeb40df841b'
p1635
aa(lp1636
S'usr/pkg/man/man3/tputs.3'
p1637
aS'b2638e52f9febf002348d703013979f4'
p1638
aa(lp1639
S'usr/pkg/man/man3/idn_free.3'
p1640
aS'210e5fad7254452df6e95b5b5d83ecdb'
p1641
aa(lp1642
S'usr/pkg/man/man3/vw_scanw.3'
p1643
aS'605bf239e7e3ea8b3ea10c8554ffbd8a'
p1644
aa(lp1645
S'usr/pkg/man/man3/newwin.3'
p1646
aS'566762efd513dfa3c5f8d5dccd59e3af'
p1647
aa(lp1648
S'usr/pkg/man/man3/has_il.3'
p1649
aS'e115556a2452a85222de82b37d689714'
p1650
aa(lp1651
S'usr/pkg/man/man3/curs_move.3'
p1652
aS'9011b556d78d470c281b1df90d6cef44'
p1653
aa(lp1654
S'usr/pkg/man/man3/vw_printw.3'
p1655
aS'35663d4cd8e23e01440ab38f867cc372'
p1656
aa(lp1657
S'usr/pkg/man/man3/add_wchnstr.3'
p1658
aS'4cd3312976ed3fdcb407e5696531c995'
p1659
aa(lp1660
S'usr/pkg/man/man3/mvwinchstr.3'
p1661
aS'0f29ab49693f3e552f1794ba0e552526'
p1662
aa(lp1663
S'usr/pkg/man/man3/form_sub.3'
p1664
aS'7b716e02433d8456462d3d8ea728097d'
p1665
aa(lp1666
S'usr/pkg/man/man3/curl_easy_send.3'
p1667
aS'2aa0a873bf38b0206fd1e6a7a84f7576'
p1668
aa(lp1669
S'usr/pkg/man/man3/is_keypad.3'
p1670
aS'cbe262815ccffb74b84cc02fb32c6ac5'
p1671
aa(lp1672
S'usr/pkg/man/man3/curs_addstr.3'
p1673
aS'1bd3c9aed7f6980d4ba174f74a0a7f63'
p1674
aa(lp1675
S'usr/pkg/man/man3/init_color.3'
p1676
aS'2974f31c38a8f500c2de582763d1b968'
p1677
aa(lp1678
S'usr/pkg/man/man3/nocbreak.3'
p1679
aS'f9617a31df8a124c5fb2851b8be2cdb3'
p1680
aa(lp1681
S'usr/pkg/man/man3/libxslt.3'
p1682
aS'e4962632ed2590adad3621054417bd2a'
p1683
aa(lp1684
S'usr/pkg/man/man3/field_index.3'
p1685
aS'ef0c3e1b1122658131d52fbc4e0e2d1d'
p1686
aa(lp1687
S'usr/pkg/man/man3/mcprint.3'
p1688
aS'52936ad92267006efd394821e7defa16'
p1689
aa(lp1690
S'usr/pkg/man/man3/form_field_userptr.3'
p1691
aS'c7ddb0f331c8118afd7c17935df3c60c'
p1692
aa(lp1693
S'usr/pkg/man/man3/set_field_init.3'
p1694
aS'518d12472fcc073892cad6923ad6c1bc'
p1695
aa(lp1696
S'usr/pkg/man/man3/curs_getyx.3'
p1697
aS'177fd695b50ead946462eff79c853e87'
p1698
aa(lp1699
S'usr/pkg/man/man3/curs_memleaks.3'
p1700
aS'66b04e3731bd2a96b3a5146ea49d6453'
p1701
aa(lp1702
S'usr/pkg/man/man3/curs_ins_wstr.3'
p1703
aS'a3f2e16bc5c018e233b66375d0b77d1f'
p1704
aa(lp1705
S'usr/pkg/man/man3/set_item_init.3'
p1706
aS'db77d6308aa550f1cc21f2171848fe05'
p1707
aa(lp1708
S'usr/pkg/man/man3/win_wchnstr.3'
p1709
aS'89ee10dc94a737157c0b91c374df6e5c'
p1710
aa(lp1711
S'usr/pkg/man/man3/menu_items.3'
p1712
aS'c1f25fd68b3dd1aceeb0eacace01b664'
p1713
aa(lp1714
S'usr/pkg/man/man3/ungetmouse.3'
p1715
aS'eb2463166da777eeb23dd74296db3a86'
p1716
aa(lp1717
S'usr/pkg/man/man3/resetty.3'
p1718
aS'80fbd26c200512e1d4a77e181d7a00db'
p1719
aa(lp1720
S'usr/pkg/man/man3/wadd_wch.3'
p1721
aS'2d063781291e685cbbfcb9715737be5a'
p1722
aa(lp1723
S'usr/pkg/man/man3/wsetscrreg.3'
p1724
aS'5128449a71b94b88dd905303340b9cc6'
p1725
aa(lp1726
S'usr/pkg/man/man3/is_immedok.3'
p1727
aS'cbe262815ccffb74b84cc02fb32c6ac5'
p1728
aa(lp1729
S'usr/pkg/man/man3/putwin.3'
p1730
aS'1d97c2db25f7854814dbc09a8580ce5f'
p1731
aa(lp1732
S'usr/pkg/man/man3/menu_request_name.3'
p1733
aS'1367c50915ad4a6375cd8a921ccab607'
p1734
aa(lp1735
S'usr/pkg/man/man3/curs_scr_dump.3'
p1736
aS'cb92c8f2d2b594cd8d173e6b663822b3'
p1737
aa(lp1738
S'usr/pkg/man/man3/form_field_buffer.3'
p1739
aS'e82f6cea5812a5fc19f2f112ddf51c90'
p1740
aa(lp1741
S'usr/pkg/man/man3/wecho_wchar.3'
p1742
aS'2d063781291e685cbbfcb9715737be5a'
p1743
aa(lp1744
S'usr/pkg/man/man3/werase.3'
p1745
aS'd2c094eb03741c9558b9b9f7891baf2a'
p1746
aa(lp1747
S'usr/pkg/man/man3/field_arg.3'
p1748
aS'48192b92e0379da376c0f5862f2ca2c2'
p1749
aa(lp1750
S'usr/pkg/man/man3/curl_global_init.3'
p1751
aS'7cdef02de628fa90acfeefa8486be586'
p1752
aa(lp1753
S'usr/pkg/man/man3/tld_strerror.3'
p1754
aS'864496ee381f49a45875adca5d02568e'
p1755
aa(lp1756
S'usr/pkg/man/man3/wclrtoeol.3'
p1757
aS'd2c094eb03741c9558b9b9f7891baf2a'
p1758
aa(lp1759
S'usr/pkg/man/man3/ffi.3'
p1760
aS'0bf19cd396787816bfd443fe9f6b0097'
p1761
aa(lp1762
S'usr/pkg/man/man3/field_count.3'
p1763
aS'e8799a078bdfaa4ea49afd853e432ff0'
p1764
aa(lp1765
S'usr/pkg/man/man3/set_field_back.3'
p1766
aS'2557ef8194aecb951db463e9b53ed7e5'
p1767
aa(lp1768
S'usr/pkg/man/man3/attrset.3'
p1769
aS'5acfc3c1f8bfde79b2736eeb40df841b'
p1770
aa(lp1771
S'usr/pkg/man/man3/curs_in_wch.3'
p1772
aS'35d9d28b4cb47c2f8e3113a89929b843'
p1773
aa(lp1774
S'usr/pkg/man/man3/dupwin.3'
p1775
aS'566762efd513dfa3c5f8d5dccd59e3af'
p1776
aa(lp1777
S'usr/pkg/man/man3/curs_getstr.3'
p1778
aS'ac20cde1e417b3f01ad53b995dd729d4'
p1779
aa(lp1780
S'usr/pkg/man/man3/menu_opts.3'
p1781
aS'3535b823f3ce146b111da838080345b0'
p1782
aa(lp1783
S'usr/pkg/man/man3/mitem_new.3'
p1784
aS'6ed2177eb1f54dc58213cfdb9cc89182'
p1785
aa(lp1786
S'usr/pkg/man/man3/addchnstr.3'
p1787
aS'00e937723d0a653f41a411cda0cce2e4'
p1788
aa(lp1789
S'usr/pkg/man/man3/color_content.3'
p1790
aS'2974f31c38a8f500c2de582763d1b968'
p1791
aa(lp1792
S'usr/pkg/man/man3/menu_pattern.3'
p1793
aS'd4d2e944d895f4e3ae475bf05ed0c0ea'
p1794
aa(lp1795
S'usr/pkg/man/man3/delwin.3'
p1796
aS'566762efd513dfa3c5f8d5dccd59e3af'
p1797
aa(lp1798
S'usr/pkg/man/man3/free_field.3'
p1799
aS'4d4a7a758902622cffa6bcde533f1585'
p1800
aa(lp1801
S'usr/pkg/man/man3/waddchnstr.3'
p1802
aS'00e937723d0a653f41a411cda0cce2e4'
p1803
aa(lp1804
S'usr/pkg/man/man3/add_wchstr.3'
p1805
aS'4cd3312976ed3fdcb407e5696531c995'
p1806
aa(lp1807
S'usr/pkg/man/man3/timeout.3'
p1808
aS'f9617a31df8a124c5fb2851b8be2cdb3'
p1809
aa(lp1810
S'usr/pkg/man/man3/_nc_free_and_exit.3'
p1811
aS'66b04e3731bd2a96b3a5146ea49d6453'
p1812
aa(lp1813
S'usr/pkg/man/man3/newpad.3'
p1814
aS'eed468c64f4210d5de2549933a8303b8'
p1815
aa(lp1816
S'usr/pkg/man/man3/mvwinchnstr.3'
p1817
aS'0f29ab49693f3e552f1794ba0e552526'
p1818
aa(lp1819
S'usr/pkg/man/man3/mvinchstr.3'
p1820
aS'0f29ab49693f3e552f1794ba0e552526'
p1821
aa(lp1822
S'usr/pkg/man/man3/curs_get_wch.3'
p1823
aS'33036663befb046b7132aa4deaa5e60b'
p1824
aa(lp1825
S'usr/pkg/man/man3/menu_spacing.3'
p1826
aS'8ce7561ae9ea2bf4175bfd9349fd3f24'
p1827
aa(lp1828
S'usr/pkg/man/man3/ins_wch.3'
p1829
aS'e838e8322fcb6cc8db623179ba041196'
p1830
aa(lp1831
S'usr/pkg/man/man3/mvwhline.3'
p1832
aS'64157d6eee0cf3b56a8627fa3a1e0499'
p1833
aa(lp1834
S'usr/pkg/man/man3/form.3'
p1835
aS'5eccd98826a0f4806ef8f807159ec49a'
p1836
aa(lp1837
S'usr/pkg/man/man3/set_form_opts.3'
p1838
aS'43be5574fb8dd5e33a00e769cac322e7'
p1839
aa(lp1840
S'usr/pkg/man/man3/mvins_wch.3'
p1841
aS'e838e8322fcb6cc8db623179ba041196'
p1842
aa(lp1843
S'usr/pkg/man/man3/ripoffline.3'
p1844
aS'80fbd26c200512e1d4a77e181d7a00db'
p1845
aa(lp1846
S'usr/pkg/man/man3/typeahead.3'
p1847
aS'f9617a31df8a124c5fb2851b8be2cdb3'
p1848
aa(lp1849
S'usr/pkg/man/man3/mvhline.3'
p1850
aS'64157d6eee0cf3b56a8627fa3a1e0499'
p1851
aa(lp1852
S'usr/pkg/man/man3/curl_multi_init.3'
p1853
aS'18756ec464d3cc5acb42ec7385e7b39e'
p1854
aa(lp1855
S'usr/pkg/man/man3/curs_pad.3'
p1856
aS'eed468c64f4210d5de2549933a8303b8'
p1857
aa(lp1858
S'usr/pkg/man/man3/curl_share_cleanup.3'
p1859
aS'5fcad8e635adcff94c57f271c6bf0ef9'
p1860
aa(lp1861
S'usr/pkg/man/man3/getcurx.3'
p1862
aS'266941af0c00577505eaff3b671a2947'
p1863
aa(lp1864
S'usr/pkg/man/man3/field_buffer.3'
p1865
aS'e82f6cea5812a5fc19f2f112ddf51c90'
p1866
aa(lp1867
S'usr/pkg/man/man3/pos_form_cursor.3'
p1868
aS'c887d012709ee8d1059b248294ff5ea5'
p1869
aa(lp1870
S'usr/pkg/man/man3/tld_get_4.3'
p1871
aS'd1b531979a73e2a68d059d45a3de89f6'
p1872
aa(lp1873
S'usr/pkg/man/man3/winsertln.3'
p1874
aS'76d4d354076e2131371b0564289bbb0d'
p1875
aa(lp1876
S'usr/pkg/man/man3/winsnstr.3'
p1877
aS'6ba1fe0ea910c755c420a835a462a161'
p1878
aa(lp1879
S'usr/pkg/man/man3/curs_opaque.3'
p1880
aS'cbe262815ccffb74b84cc02fb32c6ac5'
p1881
aa(lp1882
S'usr/pkg/man/man3/set_new_page.3'
p1883
aS'e4fafb838e8dabc5dc26486814eff60b'
p1884
aa(lp1885
S'usr/pkg/man/man3/slk_attr_set.3'
p1886
aS'621e752a9f8a1d85320c4b56e6a46dd7'
p1887
aa(lp1888
S'usr/pkg/man/man3/hline_set.3'
p1889
aS'4ff9ed1d8587304547fafe611efafa9a'
p1890
aa(lp1891
S'usr/pkg/man/man3/getbegx.3'
p1892
aS'266941af0c00577505eaff3b671a2947'
p1893
aa(lp1894
S'usr/pkg/man/man3/menu_sub.3'
p1895
aS'afdcb265eddaff3c182ce62a6afab43b'
p1896
aa(lp1897
S'usr/pkg/man/man3/pos_menu_cursor.3'
p1898
aS'7cb7ef10315be84cf51fa7075cfb5b7b'
p1899
aa(lp1900
S'usr/pkg/man/man3/curl_multi_setopt.3'
p1901
aS'48856502e300844122bde3200ec47644'
p1902
aa(lp1903
S'usr/pkg/man/man3/curs_delch.3'
p1904
aS'9d241be9c123e0382075ec92b838db93'
p1905
aa(lp1906
S'usr/pkg/man/man3/curl_getdate.3'
p1907
aS'2e42a55efabbd54f7504ea75dfcedb54'
p1908
aa(lp1909
S'usr/pkg/man/man3/endwin.3'
p1910
aS'834e070545a142762f74e04ad94087b3'
p1911
aa(lp1912
S'usr/pkg/man/man3/mvwinnstr.3'
p1913
aS'4459fbf20b7a9e9c9ce7565518b6ee6b'
p1914
aa(lp1915
S'usr/pkg/man/man3/filter.3'
p1916
aS'1d97c2db25f7854814dbc09a8580ce5f'
p1917
aa(lp1918
S'usr/pkg/man/man3/tld_get_table.3'
p1919
aS'7ba118452eb778df0310d5717a6d8804'
p1920
aa(lp1921
S'usr/pkg/man/man3/wgetparent.3'
p1922
aS'cbe262815ccffb74b84cc02fb32c6ac5'
p1923
aa(lp1924
S'usr/pkg/man/man3/set_form_userptr.3'
p1925
aS'f7cf3ee15b151d4f897bae6741f3f5c8'
p1926
aa(lp1927
S'usr/pkg/man/man3/menu_term.3'
p1928
aS'db77d6308aa550f1cc21f2171848fe05'
p1929
aa(lp1930
S'usr/pkg/man/man3/waddnstr.3'
p1931
aS'1bd3c9aed7f6980d4ba174f74a0a7f63'
p1932
aa(lp1933
S'usr/pkg/man/man3/vidputs.3'
p1934
aS'b2638e52f9febf002348d703013979f4'
p1935
aa(lp1936
S'usr/pkg/man/man3/set_menu_pattern.3'
p1937
aS'd4d2e944d895f4e3ae475bf05ed0c0ea'
p1938
aa(lp1939
S'usr/pkg/man/man3/is_notimeout.3'
p1940
aS'cbe262815ccffb74b84cc02fb32c6ac5'
p1941
aa(lp1942
S'usr/pkg/man/man3/addwstr.3'
p1943
aS'01d46438c8299ac58ace1bbfaa0c55eb'
p1944
aa(lp1945
S'usr/pkg/man/man3/set_menu_userptr.3'
p1946
aS'6d51b9833bb66696c4277f5b0c6a2f46'
p1947
aa(lp1948
S'usr/pkg/man/man3/pr29_4.3'
p1949
aS'48a6dca45333282299d8c5afbac2e06d'
p1950
aa(lp1951
S'usr/pkg/man/man3/mvwprintw.3'
p1952
aS'35663d4cd8e23e01440ab38f867cc372'
p1953
aa(lp1954
S'usr/pkg/man/man3/curl_easy_recv.3'
p1955
aS'95f4d6ba865b7d1f5e3730f6c2f0d2c7'
p1956
aa(lp1957
S'usr/pkg/man/man3/curs_print.3'
p1958
aS'52936ad92267006efd394821e7defa16'
p1959
aa(lp1960
S'usr/pkg/man/man3/mvwaddchnstr.3'
p1961
aS'00e937723d0a653f41a411cda0cce2e4'
p1962
aa(lp1963
S'usr/pkg/man/man3/mvcur.3'
p1964
aS'b2638e52f9febf002348d703013979f4'
p1965
aa(lp1966
S'usr/pkg/man/man3/set_menu_mark.3'
p1967
aS'4a3431be2a17af8c7d94beb99fbaa669'
p1968
aa(lp1969
S'usr/pkg/man/man3/wcursyncup.3'
p1970
aS'566762efd513dfa3c5f8d5dccd59e3af'
p1971
aa(lp1972
S'usr/pkg/man/man3/wbkgrndset.3'
p1973
aS'96d5804df8184c677abea8f5b78b1353'
p1974
aa(lp1975
S'usr/pkg/man/man3/curl_slist_append.3'
p1976
aS'4250a9c55470cf3f505651aad03a14f6'
p1977
aa(lp1978
S'usr/pkg/man/man3/addnstr.3'
p1979
aS'1bd3c9aed7f6980d4ba174f74a0a7f63'
p1980
aa(lp1981
S'usr/pkg/man/man3/mvwins_wstr.3'
p1982
aS'a3f2e16bc5c018e233b66375d0b77d1f'
p1983
aa(lp1984
S'usr/pkg/man/man3/mvwinwstr.3'
p1985
aS'4f629499a3a078d6b5240f0929556bf3'
p1986
aa(lp1987
S'usr/pkg/man/man3/slk_attrset.3'
p1988
aS'621e752a9f8a1d85320c4b56e6a46dd7'
p1989
aa(lp1990
S'usr/pkg/man/man3/curs_outopts.3'
p1991
aS'5128449a71b94b88dd905303340b9cc6'
p1992
aa(lp1993
S'usr/pkg/man/man3/slk_label.3'
p1994
aS'621e752a9f8a1d85320c4b56e6a46dd7'
p1995
aa(lp1996
S'usr/pkg/man/man3/echochar.3'
p1997
aS'fc368078ad52f0b552edfc13d2448004'
p1998
aa(lp1999
S'usr/pkg/man/man3/curs_overlay.3'
p2000
aS'ca22b5ba3d33f1d77253a81b22befabf'
p2001
aa(lp2002
S'usr/pkg/man/man3/isendwin.3'
p2003
aS'834e070545a142762f74e04ad94087b3'
p2004
aa(lp2005
S'usr/pkg/man/man3/form_request_name.3'
p2006
aS'0045ada1d7ea06b9bb8efb52b81d87f8'
p2007
aa(lp2008
S'usr/pkg/man/man3/wstandout.3'
p2009
aS'5acfc3c1f8bfde79b2736eeb40df841b'
p2010
aa(lp2011
S'usr/pkg/man/man3/set_menu_pad.3'
p2012
aS'a4e735db41dfb75078f160fe231e204c'
p2013
aa(lp2014
S'usr/pkg/man/man3/pnoutrefresh.3'
p2015
aS'eed468c64f4210d5de2549933a8303b8'
p2016
aa(lp2017
S'usr/pkg/man/man3/set_item_userptr.3'
p2018
aS'f5236eecf25361519e8437fbbacc2353'
p2019
aa(lp2020
S'usr/pkg/man/man3/mvscanw.3'
p2021
aS'605bf239e7e3ea8b3ea10c8554ffbd8a'
p2022
aa(lp2023
S'usr/pkg/man/man3/wbkgdset.3'
p2024
aS'0eb2cca33211b8a9f90b9487d4886a28'
p2025
aa(lp2026
S'usr/pkg/man/man3/winwstr.3'
p2027
aS'4f629499a3a078d6b5240f0929556bf3'
p2028
aa(lp2029
S'usr/pkg/man/man3/newterm.3'
p2030
aS'834e070545a142762f74e04ad94087b3'
p2031
aa(lp2032
S'usr/pkg/man/man3/panel_below.3'
p2033
aS'7ad0d67d24641e311802c9fdb9c7c979'
p2034
aa(lp2035
S'usr/pkg/man/man3/form_cursor.3'
p2036
aS'c887d012709ee8d1059b248294ff5ea5'
p2037
aa(lp2038
S'usr/pkg/man/man3/curs_insstr.3'
p2039
aS'6ba1fe0ea910c755c420a835a462a161'
p2040
aa(lp2041
S'usr/pkg/man/man3/stringprep_strerror.3'
p2042
aS'98069af758f975bc633f2530bf28dfa7'
p2043
aa(lp2044
S'usr/pkg/man/man3/slk_set.3'
p2045
aS'621e752a9f8a1d85320c4b56e6a46dd7'
p2046
aa(lp2047
S'usr/pkg/man/man3/idlok.3'
p2048
aS'5128449a71b94b88dd905303340b9cc6'
p2049
aa(lp2050
S'usr/pkg/man/man3/mvwdelch.3'
p2051
aS'9d241be9c123e0382075ec92b838db93'
p2052
aa(lp2053
S'usr/pkg/man/man3/stringprep_ucs4_nfkc_normalize.3'
p2054
aS'77cccac5320b90d105431abc4d50b16f'
p2055
aa(lp2056
S'usr/pkg/man/man3/mvdelch.3'
p2057
aS'9d241be9c123e0382075ec92b838db93'
p2058
aa(lp2059
S'usr/pkg/man/man3/punycode_encode.3'
p2060
aS'8de4b2cfab49fb67e953e5cf27b05fbf'
p2061
aa(lp2062
S'usr/pkg/man/man3/mitem_name.3'
p2063
aS'301af19cf3653d71edd28fe20a032851'
p2064
aa(lp2065
S'usr/pkg/man/man3/getnstr.3'
p2066
aS'ac20cde1e417b3f01ad53b995dd729d4'
p2067
aa(lp2068
S'usr/pkg/man/man3/addnwstr.3'
p2069
aS'01d46438c8299ac58ace1bbfaa0c55eb'
p2070
aa(lp2071
S'usr/pkg/man/man3/mvvline_set.3'
p2072
aS'4ff9ed1d8587304547fafe611efafa9a'
p2073
aa(lp2074
S'usr/pkg/man/man3/set_menu_term.3'
p2075
aS'db77d6308aa550f1cc21f2171848fe05'
p2076
aa(lp2077
S'usr/pkg/man/man3/set_curterm.3'
p2078
aS'b2638e52f9febf002348d703013979f4'
p2079
aa(lp2080
S'usr/pkg/man/man3/new_menu.3'
p2081
aS'74dd1e0debf0de6c609f8399ef1e6edb'
p2082
aa(lp2083
S'usr/pkg/man/man3/wgetnstr.3'
p2084
aS'ac20cde1e417b3f01ad53b995dd729d4'
p2085
aa(lp2086
S'usr/pkg/man/man3/attr_set.3'
p2087
aS'5acfc3c1f8bfde79b2736eeb40df841b'
p2088
aa(lp2089
S'usr/pkg/man/man3/curs_addchstr.3'
p2090
aS'00e937723d0a653f41a411cda0cce2e4'
p2091
aa(lp2092
S'usr/pkg/man/man3/tld_check_lz.3'
p2093
aS'da9d562faae31ac8849e230a1b87a584'
p2094
aa(lp2095
S'usr/pkg/man/man3/curl_multi_timeout.3'
p2096
aS'ed7b034e52e32b23468cce5da888f999'
p2097
aa(lp2098
S'usr/pkg/man/man3/curl_easy_escape.3'
p2099
aS'9fb67a85aab0b8182fa9aa05dff32db2'
p2100
aa(lp2101
S'usr/pkg/man/man3/wattrset.3'
p2102
aS'5acfc3c1f8bfde79b2736eeb40df841b'
p2103
aa(lp2104
S'usr/pkg/man/man3/field_type.3'
p2105
aS'48192b92e0379da376c0f5862f2ca2c2'
p2106
aa(lp2107
S'usr/pkg/man/man3/noqiflush.3'
p2108
aS'f9617a31df8a124c5fb2851b8be2cdb3'
p2109
aa(lp2110
S'usr/pkg/man/man3/menu_requestname.3'
p2111
aS'1367c50915ad4a6375cd8a921ccab607'
p2112
aa(lp2113
S'usr/pkg/man/man3/curs_getcchar.3'
p2114
aS'489e910cbb7b6288c548d4658b79daa3'
p2115
aa(lp2116
S'usr/pkg/man/man3/menu_opts_off.3'
p2117
aS'3535b823f3ce146b111da838080345b0'
p2118
aa(lp2119
S'usr/pkg/man/man3/slk_attr_off.3'
p2120
aS'621e752a9f8a1d85320c4b56e6a46dd7'
p2121
aa(lp2122
S'usr/pkg/man/man3/set_current_item.3'
p2123
aS'e0552a194d7f579d33496bfac1df11d4'
p2124
aa(lp2125
S'usr/pkg/man/man3/reset_prog_mode.3'
p2126
aS'80fbd26c200512e1d4a77e181d7a00db'
p2127
aa(lp2128
S'usr/pkg/man/man3/wgetbkgrnd.3'
p2129
aS'96d5804df8184c677abea8f5b78b1353'
p2130
aa(lp2131
S'usr/pkg/man/man3/attroff.3'
p2132
aS'5acfc3c1f8bfde79b2736eeb40df841b'
p2133
aa(lp2134
S'usr/pkg/man/man3/erase.3'
p2135
aS'd2c094eb03741c9558b9b9f7891baf2a'
p2136
aa(lp2137
S'usr/pkg/man/man3/field_info.3'
p2138
aS'0ac9e8786b9d3fda3d039ee2a8d96431'
p2139
aa(lp2140
S'usr/pkg/man/man3/def_prog_mode.3'
p2141
aS'80fbd26c200512e1d4a77e181d7a00db'
p2142
aa(lp2143
S'usr/pkg/man/man3/form_field_new.3'
p2144
aS'4d4a7a758902622cffa6bcde533f1585'
p2145
aa(lp2146
S'usr/pkg/man/man3/slk_touch.3'
p2147
aS'621e752a9f8a1d85320c4b56e6a46dd7'
p2148
aa(lp2149
S'usr/pkg/man/man3/winchstr.3'
p2150
aS'0f29ab49693f3e552f1794ba0e552526'
p2151
aa(lp2152
S'usr/pkg/man/man3/tparm.3'
p2153
aS'b2638e52f9febf002348d703013979f4'
p2154
aa(lp2155
S'usr/pkg/man/man3/data_ahead.3'
p2156
aS'b36f0c610d337aa1abd9fa50737246b7'
p2157
aa(lp2158
S'usr/pkg/man/man3/mvhline_set.3'
p2159
aS'4ff9ed1d8587304547fafe611efafa9a'
p2160
aa(lp2161
S'usr/pkg/man/man3/setscrreg.3'
p2162
aS'5128449a71b94b88dd905303340b9cc6'
p2163
aa(lp2164
S'usr/pkg/man/man3/current_item.3'
p2165
aS'e0552a194d7f579d33496bfac1df11d4'
p2166
aa(lp2167
S'usr/pkg/man/man3/curs_termattrs.3'
p2168
aS'e115556a2452a85222de82b37d689714'
p2169
aa(lp2170
S'usr/pkg/man/man3/curs_clear.3'
p2171
aS'd2c094eb03741c9558b9b9f7891baf2a'
p2172
aa(lp2173
S'usr/pkg/man/man3/qiflush.3'
p2174
aS'f9617a31df8a124c5fb2851b8be2cdb3'
p2175
aa(lp2176
S'usr/pkg/man/man3/_tracechtype2.3'
p2177
aS'5b1a4d120b996b296ed5277ca66f8d19'
p2178
aa(lp2179
S'usr/pkg/man/man3/getstr.3'
p2180
aS'ac20cde1e417b3f01ad53b995dd729d4'
p2181
aa(lp2182
S'usr/pkg/man/man3/new_field.3'
p2183
aS'4d4a7a758902622cffa6bcde533f1585'
p2184
aa(lp2185
S'usr/pkg/man/man3/menu_back.3'
p2186
aS'a4e735db41dfb75078f160fe231e204c'
p2187
aa(lp2188
S'usr/pkg/man/man3/move_panel.3'
p2189
aS'7ad0d67d24641e311802c9fdb9c7c979'
p2190
aa(lp2191
S'usr/pkg/man/man3/curs_ins_wch.3'
p2192
aS'e838e8322fcb6cc8db623179ba041196'
p2193
aa(lp2194
S'usr/pkg/man/man3/mitem_opts.3'
p2195
aS'8d752108e6979a9df534325232899d00'
p2196
aa(lp2197
S'usr/pkg/man/man3/mvinch.3'
p2198
aS'c59b3c6fc915d5d5fafff0660c9452db'
p2199
aa(lp2200
S'usr/pkg/man/man3/curl_formfree.3'
p2201
aS'cbe8e446dccadfe14596ed41497f00cf'
p2202
aa(lp2203
S'usr/pkg/man/man3/mvwin_wchnstr.3'
p2204
aS'89ee10dc94a737157c0b91c374df6e5c'
p2205
aa(lp2206
S'usr/pkg/man/man3/mvwinsstr.3'
p2207
aS'6ba1fe0ea910c755c420a835a462a161'
p2208
aa(lp2209
S'usr/pkg/man/man3/top_row.3'
p2210
aS'e0552a194d7f579d33496bfac1df11d4'
p2211
aa(lp2212
S'usr/pkg/man/man3/form_fieldtype.3'
p2213
aS'60de02012dc9b87261096a695523afcc'
p2214
aa(lp2215
S'usr/pkg/man/man3/del_panel.3'
p2216
aS'7ad0d67d24641e311802c9fdb9c7c979'
p2217
aa(lp2218
S'usr/pkg/man/man3/wgetstr.3'
p2219
aS'ac20cde1e417b3f01ad53b995dd729d4'
p2220
aa(lp2221
S'usr/pkg/man/man3/winchnstr.3'
p2222
aS'0f29ab49693f3e552f1794ba0e552526'
p2223
aa(lp2224
S'usr/pkg/man/man3/curs_trace.3'
p2225
aS'5b1a4d120b996b296ed5277ca66f8d19'
p2226
aa(lp2227
S'usr/pkg/man/man3/curl_share_strerror.3'
p2228
aS'0b1e48df66814daec2750708ed135d70'
p2229
aa(lp2230
S'usr/pkg/man/man3/keyok.3'
p2231
aS'ed2a2ec580fceef3967b28eca8597996'
p2232
aa(lp2233
S'usr/pkg/man/man3/curs_border_set.3'
p2234
aS'4ff9ed1d8587304547fafe611efafa9a'
p2235
aa(lp2236
S'usr/pkg/man/man3/stringprep_locale_charset.3'
p2237
aS'eb626e3841f9d7015ccde57418055d25'
p2238
aa(lp2239
S'usr/pkg/man/man3/getbegyx.3'
p2240
aS'177fd695b50ead946462eff79c853e87'
p2241
aa(lp2242
S'usr/pkg/man/man3/curs_add_wchstr.3'
p2243
aS'4cd3312976ed3fdcb407e5696531c995'
p2244
aa(lp2245
S'usr/pkg/man/man3/iconvctl.3'
p2246
aS'a4aae1db105adc1d2b82ef71e2c87f69'
p2247
aa(lp2248
S'usr/pkg/man/man3/form_field_just.3'
p2249
aS'2bd54b1aff8b663100a3196d9b0f0eed'
p2250
aa(lp2251
S'usr/pkg/man/man3/resizeterm.3'
p2252
aS'a41784d0e569df7a9c46a916b8e381ac'
p2253
aa(lp2254
S'usr/pkg/man/man3/menu_cursor.3'
p2255
aS'7cb7ef10315be84cf51fa7075cfb5b7b'
p2256
aa(lp2257
S'usr/pkg/man/man3/mvaddwstr.3'
p2258
aS'01d46438c8299ac58ace1bbfaa0c55eb'
p2259
aa(lp2260
S'usr/pkg/man/man3/ngettext.3'
p2261
aS'358c782b16370a422deea44b9be6a770'
p2262
aa(lp2263
S'usr/pkg/man/man3/curl_multi_fdset.3'
p2264
aS'4f00fc0d32855229d785d51e3ccefb5f'
p2265
aa(lp2266
S'usr/pkg/man/man3/vidattr.3'
p2267
aS'b2638e52f9febf002348d703013979f4'
p2268
aa(lp2269
S'usr/pkg/man/man3/curs_extend.3'
p2270
aS'705c4519364fc6cf8c7c80aac586c49d'
p2271
aa(lp2272
S'usr/pkg/man/man3/curs_termcap.3'
p2273
aS'def1652e111c9057aae0e1f309ac8dc2'
p2274
aa(lp2275
S'usr/pkg/man/man3/mvaddnstr.3'
p2276
aS'1bd3c9aed7f6980d4ba174f74a0a7f63'
p2277
aa(lp2278
S'usr/pkg/man/man3/in_wchnstr.3'
p2279
aS'89ee10dc94a737157c0b91c374df6e5c'
p2280
aa(lp2281
S'usr/pkg/man/man3/menu_pad.3'
p2282
aS'a4e735db41dfb75078f160fe231e204c'
p2283
aa(lp2284
S'usr/pkg/man/man3/insertln.3'
p2285
aS'76d4d354076e2131371b0564289bbb0d'
p2286
aa(lp2287
S'usr/pkg/man/man3/winnstr.3'
p2288
aS'4459fbf20b7a9e9c9ce7565518b6ee6b'
p2289
aa(lp2290
S'usr/pkg/man/man3/killwchar.3'
p2291
aS'e115556a2452a85222de82b37d689714'
p2292
aa(lp2293
S'usr/pkg/man/man3/_nc_tracebits.3'
p2294
aS'5b1a4d120b996b296ed5277ca66f8d19'
p2295
aa(lp2296
S'usr/pkg/man/man3/getcury.3'
p2297
aS'266941af0c00577505eaff3b671a2947'
p2298
aa(lp2299
S'usr/pkg/man/man3/tld_check_8z.3'
p2300
aS'86ccc7ee461d92a266570d6dce503000'
p2301
aa(lp2302
S'usr/pkg/man/man3/termname.3'
p2303
aS'e115556a2452a85222de82b37d689714'
p2304
aa(lp2305
S'usr/pkg/man/man3/wgetch.3'
p2306
aS'ddd3e91294b76a26124204f5d2da2ab8'
p2307
aa(lp2308
S'usr/pkg/man/man3/mvwins_wch.3'
p2309
aS'e838e8322fcb6cc8db623179ba041196'
p2310
aa(lp2311
S'usr/pkg/man/man3/mvvline.3'
p2312
aS'64157d6eee0cf3b56a8627fa3a1e0499'
p2313
aa(lp2314
S'usr/pkg/man/man3/bind_textdomain_codeset.3'
p2315
aS'60853c3ff325c176026c9cbe47a20587'
p2316
aa(lp2317
S'usr/pkg/man/man3/curl_easy_strerror.3'
p2318
aS'b2fb31265d390d1b5adbbbbb1c111cbc'
p2319
aa(lp2320
S'usr/pkg/man/man3/menu_driver.3'
p2321
aS'dd85382a0011ea1a912336569e58ed22'
p2322
aa(lp2323
S'usr/pkg/man/man3/mvinsch.3'
p2324
aS'9d67c3412869e2a0b067054ad3b2556f'
p2325
aa(lp2326
S'usr/pkg/man/man3/scr_restore.3'
p2327
aS'cb92c8f2d2b594cd8d173e6b663822b3'
p2328
aa(lp2329
S'usr/pkg/man/man3/win_wch.3'
p2330
aS'35d9d28b4cb47c2f8e3113a89929b843'
p2331
aa(lp2332
S'usr/pkg/man/man3/menu_format.3'
p2333
aS'ed170ed134e55b4b42919972f9ce3029'
p2334
aa(lp2335
S'usr/pkg/man/man3/wscrl.3'
p2336
aS'e4ccb3178820fb2d13d203c2130cdaf3'
p2337
aa(lp2338
S'usr/pkg/man/man3/menu_grey.3'
p2339
aS'a4e735db41dfb75078f160fe231e204c'
p2340
aa(lp2341
S'usr/pkg/man/man3/curs_bkgrnd.3'
p2342
aS'96d5804df8184c677abea8f5b78b1353'
p2343
aa(lp2344
S'usr/pkg/man/man3/wechochar.3'
p2345
aS'fc368078ad52f0b552edfc13d2448004'
p2346
aa(lp2347
S'usr/pkg/man/man3/mvwhline_set.3'
p2348
aS'4ff9ed1d8587304547fafe611efafa9a'
p2349
aa(lp2350
S'usr/pkg/man/man3/form_requestname.3'
p2351
aS'0045ada1d7ea06b9bb8efb52b81d87f8'
p2352
aa(lp2353
S'usr/pkg/man/man3/idna_to_unicode_8z8z.3'
p2354
aS'05b9fa427722b86c9bfddf9827865742'
p2355
aa(lp2356
S'usr/pkg/man/man3/form_fields.3'
p2357
aS'e8799a078bdfaa4ea49afd853e432ff0'
p2358
aa(lp2359
S'usr/pkg/man/man3/set_top_row.3'
p2360
aS'e0552a194d7f579d33496bfac1df11d4'
p2361
aa(lp2362
S'usr/pkg/man/man3/punycode_strerror.3'
p2363
aS'd257b75e488aa51ca06305939277466e'
p2364
aa(lp2365
S'usr/pkg/man/man3/scanw.3'
p2366
aS'605bf239e7e3ea8b3ea10c8554ffbd8a'
p2367
aa(lp2368
S'usr/pkg/man/man3/stringprep_utf8_to_locale.3'
p2369
aS'036b6291eb1a3f0d435b9c403e4d6899'
p2370
aa(lp2371
S'usr/pkg/man/man3/wgetscrreg.3'
p2372
aS'cbe262815ccffb74b84cc02fb32c6ac5'
p2373
aa(lp2374
S'usr/pkg/man/man3/scr_set.3'
p2375
aS'cb92c8f2d2b594cd8d173e6b663822b3'
p2376
aa(lp2377
S'usr/pkg/man/man3/bkgrndset.3'
p2378
aS'96d5804df8184c677abea8f5b78b1353'
p2379
aa(lp2380
S'usr/pkg/man/man3/item_init.3'
p2381
aS'db77d6308aa550f1cc21f2171848fe05'
p2382
aa(lp2383
S'usr/pkg/man/man3/curl_getenv.3'
p2384
aS'30212c6f5cd62d17fee658148adc9627'
p2385
aa(lp2386
S'usr/pkg/man/man3/bkgd.3'
p2387
aS'0eb2cca33211b8a9f90b9487d4886a28'
p2388
aa(lp2389
S'usr/pkg/man/man3/define_key.3'
p2390
aS'99d4dc358f0fe004cf113663f0027fc7'
p2391
aa(lp2392
S'usr/pkg/man/man3/wredrawln.3'
p2393
aS'd217492e213e3ca3a35e2af429066fb6'
p2394
aa(lp2395
S'usr/pkg/man/man3/delay_output.3'
p2396
aS'1d97c2db25f7854814dbc09a8580ce5f'
p2397
aa(lp2398
S'usr/pkg/man/man3/has_ic.3'
p2399
aS'e115556a2452a85222de82b37d689714'
p2400
aa(lp2401
S'usr/pkg/man/man3/mvwadd_wchstr.3'
p2402
aS'4cd3312976ed3fdcb407e5696531c995'
p2403
aa(lp2404
S'usr/pkg/man/man3/scale_form.3'
p2405
aS'7b716e02433d8456462d3d8ea728097d'
p2406
aa(lp2407
S'usr/pkg/man/man3/putp.3'
p2408
aS'b2638e52f9febf002348d703013979f4'
p2409
aa(lp2410
S'usr/pkg/man/man3/getopt_long.3'
p2411
aS'7e50ff1ec00858ea2a7e5223bda56494'
p2412
aa(lp2413
S'usr/pkg/man/man3/mvwaddwstr.3'
p2414
aS'01d46438c8299ac58ace1bbfaa0c55eb'
p2415
aa(lp2416
S'usr/pkg/man/man3/bkgrnd.3'
p2417
aS'96d5804df8184c677abea8f5b78b1353'
p2418
aa(lp2419
S'usr/pkg/man/man3/new_item.3'
p2420
aS'6ed2177eb1f54dc58213cfdb9cc89182'
p2421
aa(lp2422
S'usr/pkg/man/man3/curs_mouse.3'
p2423
aS'eb2463166da777eeb23dd74296db3a86'
p2424
aa(lp2425
S'usr/pkg/man/man3/addch.3'
p2426
aS'fc368078ad52f0b552edfc13d2448004'
p2427
aa(lp2428
S'usr/pkg/man/man3/slk_restore.3'
p2429
aS'621e752a9f8a1d85320c4b56e6a46dd7'
p2430
aa(lp2431
S'usr/pkg/man/man3/set_current_field.3'
p2432
aS'ef0c3e1b1122658131d52fbc4e0e2d1d'
p2433
aa(lp2434
S'usr/pkg/man/man3/mvprintw.3'
p2435
aS'35663d4cd8e23e01440ab38f867cc372'
p2436
aa(lp2437
S'usr/pkg/man/man3/stringprep_utf8_to_ucs4.3'
p2438
aS'b6ae68f362af425bd4f44d7f06372817'
p2439
aa(lp2440
S'usr/pkg/man/man3/stringprep_utf8_nfkc_normalize.3'
p2441
aS'39e169b54993923c838b8c9032ffb264'
p2442
aa(lp2443
S'usr/pkg/man/man3/curs_inopts.3'
p2444
aS'f9617a31df8a124c5fb2851b8be2cdb3'
p2445
aa(lp2446
S'usr/pkg/man/man3/libcurl-easy.3'
p2447
aS'64af8b4697b38b11230db8a500ead2f1'
p2448
aa(lp2449
S'usr/pkg/man/man3/pecho_wchar.3'
p2450
aS'eed468c64f4210d5de2549933a8303b8'
p2451
aa(lp2452
S'usr/pkg/man/man8/download-vulnerability-list.8'
p2453
aS'e511ac4da4dedd696a0a83459349adf6'
p2454
aa(lp2455
S'usr/pkg/man/man8/audit-packages.8'
p2456
aS'c12307b3fe0a2e93c884b7edc2fa7c25'
p2457
aa(lp2458
S'usr/pkg/man/cat1/pax.0'
p2459
aS'b330fb43a5dd2d02c3e841e303a39210'
p2460
aa(lp2461
S'usr/pkg/man/cat1/pkg_create.0'
p2462
aS'51e9d9a37402c041b64ff569eee1d059'
p2463
aa(lp2464
S'usr/pkg/man/cat1/nbsed.0'
p2465
aS'2756a326f2aea8c6de95a06ddb0398af'
p2466
aa(lp2467
S'usr/pkg/man/cat1/pkg_admin.0'
p2468
aS'401b17a00545bbe64fab6fd23d8ce63b'
p2469
aa(lp2470
S'usr/pkg/man/cat1/pkg_info.0'
p2471
aS'5cb40835d0cd64c64c4a13eacb0ab9f9'
p2472
aa(lp2473
S'usr/pkg/man/cat1/pkg_add.0'
p2474
aS'b9eddde176621625dd82032287c1dc70'
p2475
aa(lp2476
S'usr/pkg/man/cat1/tar.0'
p2477
aS'5a8712e84be7533102d5585feeccb82f'
p2478
aa(lp2479
S'usr/pkg/man/cat1/pkg_delete.0'
p2480
aS'c92c62a8eedb9084f6a1b97967d0ccbe'
p2481
aa(lp2482
S'usr/pkg/man/cat1/cpio.0'
p2483
aS'73d240b6d58c8c4bb2e3bae3c46255aa'
p2484
aa(lp2485
S'usr/pkg/man/man7/pkgsrc.7'
p2486
aS'fc62be665db8924cefd8fc8d9880d80f'
p2487
aa(lp2488
S'usr/pkg/man/man7/term.7'
p2489
aS'e9044c5098ac98159cd9212212928430'
p2490
aa(lp2491
S'usr/pkg/man/man5/term.5'
p2492
aS'1aa0a2e003d5b8d974751ebafe25ba27'
p2493
aa(lp2494
S'usr/pkg/man/man5/pkg_install.conf.5'
p2495
aS'1829a7ef7d3e3a6f7006289bed9bbb27'
p2496
aa(lp2497
S'usr/pkg/man/man5/hgrc.5'
p2498
aS'b9620eabaebf3c4d0dd270f54617be94'
p2499
aa(lp2500
S'usr/pkg/man/man5/info.5'
p2501
aS'9f53ea6de3b6959dfebeed69f5ee5c20'
p2502
aa(lp2503
S'usr/pkg/man/man5/texinfo.5'
p2504
aS'695d76fdc9bbe46d8c711214141275c5'
p2505
aa(lp2506
S'usr/pkg/man/man5/terminfo.5'
p2507
aS'8bc115e507de1d796e4438528c4d60d9'
p2508
aa(lp2509
S'usr/pkg/man/man5/pkg_summary.5'
p2510
aS'54f2f1ac906ffa49979c8501331643c2'
p2511
aa(lp2512
S'usr/pkg/man/man5/hgignore.5'
p2513
aS'f39e74272fd916113af735a2b7ae8cdd'
p2514
aa(lp2515
S'usr/pkg/man/man5/png.5'
p2516
aS'6223476d639cad98f85723cf4f55c260'
p2517
aa(lp2518
S'usr/pkg/man/cat7/pkgsrc.0'
p2519
aS'522174aaa0263ccf1a715e27c8904977'
p2520
aa(lp2521
S'usr/pkg/man/man1/perlmodstyle.1'
p2522
aS'd37c6c39a785db47fee6d2d700255e1d'
p2523
aa(lp2524
S'usr/pkg/man/man1/perldbmfilter.1'
p2525
aS'd8d952e9988c86e438b499e9822f1290'
p2526
aa(lp2527
S'usr/pkg/man/man1/perlmacos.1'
p2528
aS'df87511488cc0715266a4901acaa0858'
p2529
aa(lp2530
S'usr/pkg/man/man1/perlhaiku.1'
p2531
aS'b5b330bfc1ff18c572b9f631daf62401'
p2532
aa(lp2533
S'usr/pkg/man/man1/perl584delta.1'
p2534
aS'1be5ffccd0a7b4c8b2610c0d3483b601'
p2535
aa(lp2536
S'usr/pkg/man/man1/perlfilter.1'
p2537
aS'0f8c4d28913359b8096b41c206ee09f8'
p2538
aa(lp2539
S'usr/pkg/man/man1/autoscan.1'
p2540
aS'765be616b08292d14ea4d5eebd88d2ee'
p2541
aa(lp2542
S'usr/pkg/man/man1/hg.1'
p2543
aS'190b495fcba75ea0930ed4cf75a62d36'
p2544
aa(lp2545
S'usr/pkg/man/man1/texi2pdf.1'
p2546
aS'a4e0d17c63b2440f3facc257cb0e6607'
p2547
aa(lp2548
S'usr/pkg/man/man1/makeinfo.1'
p2549
aS'885b350c70ccdf10fadbc04d200af0ac'
p2550
aa(lp2551
S'usr/pkg/man/man1/perltodo.1'
p2552
aS'eeb3d57ce77730c126951daa7f0659ee'
p2553
aa(lp2554
S'usr/pkg/man/man1/cpan.1'
p2555
aS'd1d25c9259213f948a426e8107ce5cb2'
p2556
aa(lp2557
S'usr/pkg/man/man1/cpack.1'
p2558
aS'90d82c562edace30f0488aba7af7d161'
p2559
aa(lp2560
S'usr/pkg/man/man1/perlipc.1'
p2561
aS'11c5dae5c0eb475512c1e0fe39166cb3'
p2562
aa(lp2563
S'usr/pkg/man/man1/perlplan9.1'
p2564
aS'404470ce8d28103fb90d2b79c9d9c30f'
p2565
aa(lp2566
S'usr/pkg/man/man1/perlbeos.1'
p2567
aS'50ffa33f311a662267f2b006a86fd21c'
p2568
aa(lp2569
S'usr/pkg/man/man1/lzmadec.1'
p2570
aS'8290a49b7b3bb876873d68804ca875c1'
p2571
aa(lp2572
S'usr/pkg/man/man1/mktemp.1'
p2573
aS'4eaadbf4c89becd1c56bf3facffe4856'
p2574
aa(lp2575
S'usr/pkg/man/man1/tput.1'
p2576
aS'b9fbc6446a2bc3f53fa1ae940ac83ad1'
p2577
aa(lp2578
S'usr/pkg/man/man1/perlutil.1'
p2579
aS'799e3ca0a91b2d2ae1073982d6ead574'
p2580
aa(lp2581
S'usr/pkg/man/man1/pod2latex.1'
p2582
aS'89939b5fdb01e296abfc81d5375148ef'
p2583
aa(lp2584
S'usr/pkg/man/man1/perl587delta.1'
p2585
aS'91f57c2d6a7e3d0050118e23153b3423'
p2586
aa(lp2587
S'usr/pkg/man/man1/perlhist.1'
p2588
aS'ef3126d54beae431cc6a453da48a0141'
p2589
aa(lp2590
S'usr/pkg/man/man1/cppunit-config.1'
p2591
aS'0467a011eed5741ca91f120a2bc66b8d'
p2592
aa(lp2593
S'usr/pkg/man/man1/xmlto.1'
p2594
aS'987f2fb82f437482b814476f72a0deda'
p2595
aa(lp2596
S'usr/pkg/man/man1/perlrebackslash.1'
p2597
aS'7d42a46a0ca34c3cabf3e81e9504768f'
p2598
aa(lp2599
S'usr/pkg/man/man1/enc2xs.1'
p2600
aS'577814aedd6496fc72a7ace1dbf76e61'
p2601
aa(lp2602
S'usr/pkg/man/man1/getopt.1'
p2603
aS'3d0f44cb5ade2634eeec24cf8e0e5dfc'
p2604
aa(lp2605
S'usr/pkg/man/man1/perlnewmod.1'
p2606
aS'569893a81325717ad7f0724a0ee2a70f'
p2607
aa(lp2608
S'usr/pkg/man/man1/xgettext.1'
p2609
aS'e00606f7a1a05f911cd5e621480b7c69'
p2610
aa(lp2611
S'usr/pkg/man/man1/podchecker.1'
p2612
aS'ddb40ad721542d89da94213f93d5e8ac'
p2613
aa(lp2614
S'usr/pkg/man/man1/perlrun.1'
p2615
aS'5ef46277744eca99f8e800593143b985'
p2616
aa(lp2617
S'usr/pkg/man/man1/perlfaq2.1'
p2618
aS'99cf9f415968762a37a509a3edc7da58'
p2619
aa(lp2620
S'usr/pkg/man/man1/perldebug.1'
p2621
aS'f12e09f8142d92e8ff36ad44eb9e49f4'
p2622
aa(lp2623
S'usr/pkg/man/man1/perlguts.1'
p2624
aS'a60ee66a72a2f23a4a1309bd6a42ce5c'
p2625
aa(lp2626
S'usr/pkg/man/man1/perlunifaq.1'
p2627
aS'ab1bb2ffb739a4f8e58cb3819e6045d5'
p2628
aa(lp2629
S'usr/pkg/man/man1/cmake.1'
p2630
aS'ec7af576b42f832881f9cdad34b0e3f0'
p2631
aa(lp2632
S'usr/pkg/man/man1/perluniintro.1'
p2633
aS'9e652d5487ddb45ae684d6d3575515cd'
p2634
aa(lp2635
S'usr/pkg/man/man1/bashbug.1'
p2636
aS'fcbe8177eab7c37363f3076934437c1f'
p2637
aa(lp2638
S'usr/pkg/man/man1/perlmodlib.1'
p2639
aS'9575015734658f7e1f8c3598497ed1a5'
p2640
aa(lp2641
S'usr/pkg/man/man1/perlsub.1'
p2642
aS'd0284a968826c3495bbfc1a68f9e8baf'
p2643
aa(lp2644
S'usr/pkg/man/man1/perlsolaris.1'
p2645
aS'f79b67297deca6581749a6e03cd43208'
p2646
aa(lp2647
S'usr/pkg/man/man1/perlapollo.1'
p2648
aS'd3b98ebeba8137a9a3080934eb502ba6'
p2649
aa(lp2650
S'usr/pkg/man/man1/perlintern.1'
p2651
aS'7507f0d5e19afde3ca267f7b7e65ae26'
p2652
aa(lp2653
S'usr/pkg/man/man1/texindex.1'
p2654
aS'c2c71c09368cedb50595eeecf354132e'
p2655
aa(lp2656
S'usr/pkg/man/man1/perlepoc.1'
p2657
aS'87853009b3e4d6775339cc096801e004'
p2658
aa(lp2659
S'usr/pkg/man/man1/cmakeprops.1'
p2660
aS'337bfc14c7f66cbdf7c3ef4ef92c3c90'
p2661
aa(lp2662
S'usr/pkg/man/man1/rdjpgcom.1'
p2663
aS'144b0c0401dc9620a7bb9c8bd3169a44'
p2664
aa(lp2665
S'usr/pkg/man/man1/ccmake.1'
p2666
aS'634c05ff22dd4f002f4c8a8bf626c1ec'
p2667
aa(lp2668
S'usr/pkg/man/man1/lzmore.1'
p2669
aS'30d8c95b31d29fe41e6f8ca523c0a9a0'
p2670
aa(lp2671
S'usr/pkg/man/man1/pod2usage.1'
p2672
aS'18f4de1b02a010145322d658a8f9c5c3'
p2673
aa(lp2674
S'usr/pkg/man/man1/perl582delta.1'
p2675
aS'25d3c3e333598a7da21e94fdfa6d2c1d'
p2676
aa(lp2677
S'usr/pkg/man/man1/pkg-config.1'
p2678
aS'6b059c3a971865a6cb67ced19c9277c0'
p2679
aa(lp2680
S'usr/pkg/man/man1/perl5004delta.1'
p2681
aS'6f35bbb89d0bf5b973076db469733b04'
p2682
aa(lp2683
S'usr/pkg/man/man1/perl5101delta.1'
p2684
aS'2493bbaf2aa2d252b20b47800dd23188'
p2685
aa(lp2686
S'usr/pkg/man/man1/cmakepolicies.1'
p2687
aS'1cf9f194cb02cff8279b9944547eca72'
p2688
aa(lp2689
S'usr/pkg/man/man1/msgfmt.1'
p2690
aS'3f70c0eee8f7c6525155b7ca008d3029'
p2691
aa(lp2692
S'usr/pkg/man/man1/tar.1'
p2693
aS'24dec5378662969de49ea1d4cf4b7467'
p2694
aa(lp2695
S'usr/pkg/man/man1/ctest.1'
p2696
aS'1c772fdcc6f7a35ab962658199812fe7'
p2697
aa(lp2698
S'usr/pkg/man/man1/corelist.1'
p2699
aS'207591fb8cb81737af463b754cc0a565'
p2700
aa(lp2701
S'usr/pkg/man/man1/xzdiff.1'
p2702
aS'd13e50d6c595a7db7d9335d31436b6ac'
p2703
aa(lp2704
S'usr/pkg/man/man1/perlunitut.1'
p2705
aS'26c0576872226afc2c7f6e2c20a0a419'
p2706
aa(lp2707
S'usr/pkg/man/man1/a2p.1'
p2708
aS'9e03c1c05a9db5613c759ca785967e19'
p2709
aa(lp2710
S'usr/pkg/man/man1/xmlwf.1'
p2711
aS'29bcbbfe021a6eea430970e40e3abb3b'
p2712
aa(lp2713
S'usr/pkg/man/man1/bzcat.1'
p2714
aS'00faf8cc310269914ab6af5e43e77e2a'
p2715
aa(lp2716
S'usr/pkg/man/man1/asciidoc.1'
p2717
aS'1678d0d56cac0386cc4ecb2c075ec49b'
p2718
aa(lp2719
S'usr/pkg/man/man1/pod2text.1'
p2720
aS'72c65cb33e085fd86d8c7eaa9c4da3e9'
p2721
aa(lp2722
S'usr/pkg/man/man1/perlmint.1'
p2723
aS'488b4e8edc87b5d7735e8f0a6fe8b9a2'
p2724
aa(lp2725
S'usr/pkg/man/man1/perlreguts.1'
p2726
aS'990f46bf8e295da1d1ed27a926106b53'
p2727
aa(lp2728
S'usr/pkg/man/man1/pdftexi2dvi.1'
p2729
aS'a4e0d17c63b2440f3facc257cb0e6607'
p2730
aa(lp2731
S'usr/pkg/man/man1/pkg_create.1'
p2732
aS'9b30954511ee5a2dc90772e5acfe2a5f'
p2733
aa(lp2734
S'usr/pkg/man/man1/perlriscos.1'
p2735
aS'8d0a5e5fd7f5d61a482158449b9c861f'
p2736
aa(lp2737
S'usr/pkg/man/man1/perlvos.1'
p2738
aS'68367680797aff9c96643a994cf5dbb1'
p2739
aa(lp2740
S'usr/pkg/man/man1/s2p.1'
p2741
aS'3a81ae2b894ac08ab1e5de3f01f648a7'
p2742
aa(lp2743
S'usr/pkg/man/man1/lv.1'
p2744
aS'aca34fea6e705cc966e8339f04c1e9e1'
p2745
aa(lp2746
S'usr/pkg/man/man1/perlrequick.1'
p2747
aS'995dbc940fda922cbd91f539ba824b3c'
p2748
aa(lp2749
S'usr/pkg/man/man1/perl56delta.1'
p2750
aS'77eb8e6c47445afcd97fdcc235481c86'
p2751
aa(lp2752
S'usr/pkg/man/man1/perlamiga.1'
p2753
aS'20381cf1bedfe50daafbfd535a4420b4'
p2754
aa(lp2755
S'usr/pkg/man/man1/bzip2.1'
p2756
aS'00faf8cc310269914ab6af5e43e77e2a'
p2757
aa(lp2758
S'usr/pkg/man/man1/perl570delta.1'
p2759
aS'3e14a153a8f9eb230d4d41ded87af86c'
p2760
aa(lp2761
S'usr/pkg/man/man1/perl571delta.1'
p2762
aS'97c61d4026a52be89924970b5423a3c8'
p2763
aa(lp2764
S'usr/pkg/man/man1/perljp.1'
p2765
aS'8cfaec4436c9e9a1d16c88020d9d699f'
p2766
aa(lp2767
S'usr/pkg/man/man1/perlos2.1'
p2768
aS'41beb476e141525d2d8f77deb92918ca'
p2769
aa(lp2770
S'usr/pkg/man/man1/nbsed.1'
p2771
aS'2be1bdd2792ffa5276c851e2b81c686d'
p2772
aa(lp2773
S'usr/pkg/man/man1/perlreapi.1'
p2774
aS'da504d89b88952645173bb3f752e3d4c'
p2775
aa(lp2776
S'usr/pkg/man/man1/perlmroapi.1'
p2777
aS'2c7e661981c5eb577181f305deeb7f92'
p2778
aa(lp2779
S'usr/pkg/man/man1/perlnumber.1'
p2780
aS'9b60949d0d510b4aabc270f4f4dadf16'
p2781
aa(lp2782
S'usr/pkg/man/man1/splain.1'
p2783
aS'623f125f1dc8e2d871958c64d08047b5'
p2784
aa(lp2785
S'usr/pkg/man/man1/perlfaq5.1'
p2786
aS'ca2363e7719d06f498144dc8ff88fddc'
p2787
aa(lp2788
S'usr/pkg/man/man1/reset.1'
p2789
aS'b8a5385155b33d3a7050fbc1a7e08f91'
p2790
aa(lp2791
S'usr/pkg/man/man1/perlfaq8.1'
p2792
aS'dd9ac3c1ab1653dbe841b82e9a271ca0'
p2793
aa(lp2794
S'usr/pkg/man/man1/lzless.1'
p2795
aS'5068871453d8e31be124d173dfcf4ae7'
p2796
aa(lp2797
S'usr/pkg/man/man1/autoheader.1'
p2798
aS'3f573d780b12a1aef8bc57006953da12'
p2799
aa(lp2800
S'usr/pkg/man/man1/digest.1'
p2801
aS'2a3db0e2d2b5423d1e4804404a3f704d'
p2802
aa(lp2803
S'usr/pkg/man/man1/perlvmesa.1'
p2804
aS'4e33126690834574ed81fbd67b5aa7b1'
p2805
aa(lp2806
S'usr/pkg/man/man1/msgen.1'
p2807
aS'8c13db89501342027aaad409a9605e9a'
p2808
aa(lp2809
S'usr/pkg/man/man1/perl585delta.1'
p2810
aS'2885692283163c2c6d65312d4ddfdfaf'
p2811
aa(lp2812
S'usr/pkg/man/man1/install-info.1'
p2813
aS'0195aa247cbab02304982d4a799c0d2e'
p2814
aa(lp2815
S'usr/pkg/man/man1/perlfaq.1'
p2816
aS'b098cefdf7041a865ab0bd622782b5b0'
p2817
aa(lp2818
S'usr/pkg/man/man1/xzegrep.1'
p2819
aS'1bc510bb53292ece78561567fa9139df'
p2820
aa(lp2821
S'usr/pkg/man/man1/perltoot.1'
p2822
aS'891d42257424eaa8206a456e2fdc6dfc'
p2823
aa(lp2824
S'usr/pkg/man/man1/perlivp.1'
p2825
aS'ab2892d5a667cf3679b19c5a5f57bf49'
p2826
aa(lp2827
S'usr/pkg/man/man1/perlos390.1'
p2828
aS'ca268b03f6ea16985bf8744e779ec8e7'
p2829
aa(lp2830
S'usr/pkg/man/man1/pod2html.1'
p2831
aS'1fc5a6d4a503c04a4c316d39d2d2b17a'
p2832
aa(lp2833
S'usr/pkg/man/man1/perlhack.1'
p2834
aS'a32dec59546656bcd68ff2d807426c9e'
p2835
aa(lp2836
S'usr/pkg/man/man1/perlsymbian.1'
p2837
aS'39befdb35eb524215fa07394568d44c0'
p2838
aa(lp2839
S'usr/pkg/man/man1/cpio.1'
p2840
aS'f4337a83d52a5a53b90c04f33777b4ec'
p2841
aa(lp2842
S'usr/pkg/man/man1/perltw.1'
p2843
aS'b815986f1f82291ce658ebcd65ca65e5'
p2844
aa(lp2845
S'usr/pkg/man/man1/bash.1'
p2846
aS'ee684f40d7a2a81047cf9f2d5bffe164'
p2847
aa(lp2848
S'usr/pkg/man/man1/curl.1'
p2849
aS'91224c316cbf0f84dc9b4e6d2efd8e33'
p2850
aa(lp2851
S'usr/pkg/man/man1/lzmainfo.1'
p2852
aS'25192c0b85872d0c98487e2ae6b673cf'
p2853
aa(lp2854
S'usr/pkg/man/man1/xmllint.1'
p2855
aS'b6b0b06474c9dd4971888681c72091cf'
p2856
aa(lp2857
S'usr/pkg/man/man1/wrjpgcom.1'
p2858
aS'8ef6ec3d5c84fd25fd4a34ca8eff233d'
p2859
aa(lp2860
S'usr/pkg/man/man1/perldsc.1'
p2861
aS'0ca752a0f1778d454b426ac43339cbe0'
p2862
aa(lp2863
S'usr/pkg/man/man1/perlperf.1'
p2864
aS'6da056c01b205e0b3e8a2d704100bab7'
p2865
aa(lp2866
S'usr/pkg/man/man1/aclocal-1.11.1'
p2867
aS'7c08b70c616be6ad6593443f045fac5c'
p2868
aa(lp2869
S'usr/pkg/man/man1/perlrepository.1'
p2870
aS'51e0a54ba799687b0ad33e80c1dde57f'
p2871
aa(lp2872
S'usr/pkg/man/man1/unlzma.1'
p2873
aS'66754bb71340a305dca35c1b8d2e5992'
p2874
aa(lp2875
S'usr/pkg/man/man1/perl586delta.1'
p2876
aS'7c765b499a7edd6c6187cf619571873e'
p2877
aa(lp2878
S'usr/pkg/man/man1/perlgpl.1'
p2879
aS'd27035159b0abcca888126235c2bf2b9'
p2880
aa(lp2881
S'usr/pkg/man/man1/perlcommunity.1'
p2882
aS'89b7569adf3de0b5db69f57bd5793daa'
p2883
aa(lp2884
S'usr/pkg/man/man1/cmakecompat.1'
p2885
aS'cd9df75d66cb409111dfc092e5fd44ac'
p2886
aa(lp2887
S'usr/pkg/man/man1/perldebguts.1'
p2888
aS'45a2612a65bca6cc8daefeea7a08f5ba'
p2889
aa(lp2890
S'usr/pkg/man/man1/perliol.1'
p2891
aS'5c5000877bd20754b5ac4985109b2af2'
p2892
aa(lp2893
S'usr/pkg/man/man1/tset.1'
p2894
aS'b8a5385155b33d3a7050fbc1a7e08f91'
p2895
aa(lp2896
S'usr/pkg/man/man1/msgexec.1'
p2897
aS'4da033d50c7d388ebe4eb7df02f17d60'
p2898
aa(lp2899
S'usr/pkg/man/man1/perl5100delta.1'
p2900
aS'28e922836c8a0d153cfedeaade8b4949'
p2901
aa(lp2902
S'usr/pkg/man/man1/perlthrtut.1'
p2903
aS'903ef9bb1246cf651dc27006b7a6868e'
p2904
aa(lp2905
S'usr/pkg/man/man1/perlpacktut.1'
p2906
aS'4a9eb33f273adc7f76bcb6672d2a45be'
p2907
aa(lp2908
S'usr/pkg/man/man1/perltie.1'
p2909
aS'bcb7e319ac9b1f6a17a736bba45127a3'
p2910
aa(lp2911
S'usr/pkg/man/man1/lzdiff.1'
p2912
aS'd13e50d6c595a7db7d9335d31436b6ac'
p2913
aa(lp2914
S'usr/pkg/man/man1/pod2man.1'
p2915
aS'45591094ce0860fece6e5afbf675b0c7'
p2916
aa(lp2917
S'usr/pkg/man/man1/perlcompile.1'
p2918
aS'583ff4ba7491aa5df1f3297007ed906c'
p2919
aa(lp2920
S'usr/pkg/man/man1/perlopenbsd.1'
p2921
aS'5db56af15789b2be0fd331f82c3495b5'
p2922
aa(lp2923
S'usr/pkg/man/man1/perlmpeix.1'
p2924
aS'a35ace34bc9eafd996984d7b9a84034a'
p2925
aa(lp2926
S'usr/pkg/man/man1/perl581delta.1'
p2927
aS'2c643f9f1deb7189d0fc7b0de0bd8022'
p2928
aa(lp2929
S'usr/pkg/man/man1/gettext.1'
p2930
aS'9da1aa7236361ba495444b5f043aa013'
p2931
aa(lp2932
S'usr/pkg/man/man1/infocmp.1'
p2933
aS'478b53d28a7d833b80fa59c06722d1dc'
p2934
aa(lp2935
S'usr/pkg/man/man1/infokey.1'
p2936
aS'8a79c5e0d7a512c65eebf7b1c2df8004'
p2937
aa(lp2938
S'usr/pkg/man/man1/perllexwarn.1'
p2939
aS'033a68ac2ebc11706049cc02220a1e6c'
p2940
aa(lp2941
S'usr/pkg/man/man1/h2xs.1'
p2942
aS'8150e00491c8a62d14ce1ef869883698'
p2943
aa(lp2944
S'usr/pkg/man/man1/perltru64.1'
p2945
aS'da606a3d7f47ee067b9d47ca23d23eb7'
p2946
aa(lp2947
S'usr/pkg/man/man1/xz.1'
p2948
aS'66754bb71340a305dca35c1b8d2e5992'
p2949
aa(lp2950
S'usr/pkg/man/man1/h2ph.1'
p2951
aS'96ce4720f2b34eaf3724bdc21890353f'
p2952
aa(lp2953
S'usr/pkg/man/man1/perlsec.1'
p2954
aS'543ccfaf06085a46da0893108792937b'
p2955
aa(lp2956
S'usr/pkg/man/man1/perlsyn.1'
p2957
aS'f04ac80cb502c72c141c57c0dacf5876'
p2958
aa(lp2959
S'usr/pkg/man/man1/gm4.1'
p2960
aS'b62304719c5cc0041923259c52ca5050'
p2961
aa(lp2962
S'usr/pkg/man/man1/toe.1'
p2963
aS'0ccce1aa99845e6f5b200cf7d737b056'
p2964
aa(lp2965
S'usr/pkg/man/man1/perlfaq4.1'
p2966
aS'd723f34ace9ba66f8b77b9b1b79b52c3'
p2967
aa(lp2968
S'usr/pkg/man/man1/msgattrib.1'
p2969
aS'7a64cac9ed2b074097a373d808166ea5'
p2970
aa(lp2971
S'usr/pkg/man/man1/gettextize.1'
p2972
aS'3430d6f6329d4543ddfaf1aae07c34c2'
p2973
aa(lp2974
S'usr/pkg/man/man1/perlbug.1'
p2975
aS'6de4887fc33c8c9e367da640504ffd91'
p2976
aa(lp2977
S'usr/pkg/man/man1/perldata.1'
p2978
aS'9bbcab6da64388cf404100b89b33f50a'
p2979
aa(lp2980
S'usr/pkg/man/man1/perl.1'
p2981
aS'cc962e736f46d79ec632c0356896ff18'
p2982
aa(lp2983
S'usr/pkg/man/man1/xzdec.1'
p2984
aS'8290a49b7b3bb876873d68804ca875c1'
p2985
aa(lp2986
S'usr/pkg/man/man1/perllink.1'
p2987
aS'b9ea0cebbd3c598acee128f5378d38f7'
p2988
aa(lp2989
S'usr/pkg/man/man1/perlunicode.1'
p2990
aS'502e736ec1655d488bd60db0d87468f3'
p2991
aa(lp2992
S'usr/pkg/man/man1/msgunfmt.1'
p2993
aS'2f9b4cce789b0fb850b70d3c9d7b871a'
p2994
aa(lp2995
S'usr/pkg/man/man1/perlopentut.1'
p2996
aS'f5507b9ea7a41a3ea2d84a894d2d0b46'
p2997
aa(lp2998
S'usr/pkg/man/man1/msgconv.1'
p2999
aS'b13ee4b94ba08bc856fb067f5b7bbebc'
p3000
aa(lp3001
S'usr/pkg/man/man1/xzless.1'
p3002
aS'5068871453d8e31be124d173dfcf4ae7'
p3003
aa(lp3004
S'usr/pkg/man/man1/pl2pm.1'
p3005
aS'efe6e1193eecf1d1535d7912298a6e88'
p3006
aa(lp3007
S'usr/pkg/man/man1/perlcall.1'
p3008
aS'763ce1e6e21970485ba9ce1df36e21b9'
p3009
aa(lp3010
S'usr/pkg/man/man1/perlapio.1'
p3011
aS'69a3b471305aa0be174895a41c84dd97'
p3012
aa(lp3013
S'usr/pkg/man/man1/xmlif.1'
p3014
aS'f38b971f85fe2663c20b0d5f9368e351'
p3015
aa(lp3016
S'usr/pkg/man/man1/djpeg.1'
p3017
aS'd6a90ae7d62c71ed1a03520fc72e4b9d'
p3018
aa(lp3019
S'usr/pkg/man/man1/cjpeg.1'
p3020
aS'c37bb411d59db26b9a5bfff91dec2aeb'
p3021
aa(lp3022
S'usr/pkg/man/man1/xml2-config.1'
p3023
aS'b75240b11daf6e801d1392ae421315be'
p3024
aa(lp3025
S'usr/pkg/man/man1/perl561delta.1'
p3026
aS'ba3d65a23d43e038d171ff76db24cf67'
p3027
aa(lp3028
S'usr/pkg/man/man1/xzmore.1'
p3029
aS'30d8c95b31d29fe41e6f8ca523c0a9a0'
p3030
aa(lp3031
S'usr/pkg/man/man1/perlform.1'
p3032
aS'5788935f429938a5bebf173f06e5f3d2'
p3033
aa(lp3034
S'usr/pkg/man/man1/perlobj.1'
p3035
aS'a40fc6d778d0de895bf63bbb0a1a5df8'
p3036
aa(lp3037
S'usr/pkg/man/man1/dprofpp.1'
p3038
aS'd4f9f52195111fe74abc1e24962f181b'
p3039
aa(lp3040
S'usr/pkg/man/man1/xsltproc.1'
p3041
aS'be3aaba050a613d185ab69a1547eeee1'
p3042
aa(lp3043
S'usr/pkg/man/man1/perl591delta.1'
p3044
aS'984836bac30bbecf58e9aecbbbe56058'
p3045
aa(lp3046
S'usr/pkg/man/man1/shasum.1'
p3047
aS'3e8d53d10e2aca21498c8a4f807a4eba'
p3048
aa(lp3049
S'usr/pkg/man/man1/msgcmp.1'
p3050
aS'2fef5e183139a246d0ab38e8a7b7942f'
p3051
aa(lp3052
S'usr/pkg/man/man1/perlaix.1'
p3053
aS'a2aa3339fdea19668f341e754b2961f5'
p3054
aa(lp3055
S'usr/pkg/man/man1/prove.1'
p3056
aS'462e32d3f76afd031b5f8c613104c9eb'
p3057
aa(lp3058
S'usr/pkg/man/man1/cmakecommands.1'
p3059
aS'be1e9aa64a02963f73f974add698f7f4'
p3060
aa(lp3061
S'usr/pkg/man/man1/perlos400.1'
p3062
aS'd75a03152406c1e7bd8e7d8ac5f9fa5c'
p3063
aa(lp3064
S'usr/pkg/man/man1/perlnetware.1'
p3065
aS'2ad0d7ff50022517f457afbeb9e95336'
p3066
aa(lp3067
S'usr/pkg/man/man1/msggrep.1'
p3068
aS'7ef518f1acf75663a69742ef542a5a18'
p3069
aa(lp3070
S'usr/pkg/man/man1/perlbs2000.1'
p3071
aS'88a588fe2b6aa9bc56fdf479a98ab93c'
p3072
aa(lp3073
S'usr/pkg/man/man1/config_data.1'
p3074
aS'd4a48efc8d4c913f86977a70ebb4052f'
p3075
aa(lp3076
S'usr/pkg/man/man1/msgcomm.1'
p3077
aS'69eb636e0d9733c3b6101063002cc9de'
p3078
aa(lp3079
S'usr/pkg/man/man1/a2x.1'
p3080
aS'a95b756097220356bf38f8b018d37aa8'
p3081
aa(lp3082
S'usr/pkg/man/man1/perlpragma.1'
p3083
aS'0d2935dccb432e9ec899c40dbb060db8'
p3084
aa(lp3085
S'usr/pkg/man/man1/perlirix.1'
p3086
aS'7e869cb58dec37cf062ce4155938cb25'
p3087
aa(lp3088
S'usr/pkg/man/man1/ptardiff.1'
p3089
aS'912798754fca3a3973cdb2f83100eadb'
p3090
aa(lp3091
S'usr/pkg/man/man1/pkg_info.1'
p3092
aS'3ceb8e8a3c97c277b5ec20c50bfc1e65'
p3093
aa(lp3094
S'usr/pkg/man/man1/perlpod.1'
p3095
aS'0d63395ea10f01972475a15cb74ecf56'
p3096
aa(lp3097
S'usr/pkg/man/man1/unxz.1'
p3098
aS'66754bb71340a305dca35c1b8d2e5992'
p3099
aa(lp3100
S'usr/pkg/man/man1/perl5005delta.1'
p3101
aS'67f128e77b359f4ea4750693b7fae566'
p3102
aa(lp3103
S'usr/pkg/man/man1/pkg_add.1'
p3104
aS'58405f00f26c5c44df9a49e950dea8ab'
p3105
aa(lp3106
S'usr/pkg/man/man1/captoinfo.1'
p3107
aS'd25e9b072fab1adc4bee859e78e87d3c'
p3108
aa(lp3109
S'usr/pkg/man/man1/pkg_admin.1'
p3110
aS'1427bf7ec09f1db3def6d7bdaa3d4b08'
p3111
aa(lp3112
S'usr/pkg/man/man1/perlxstut.1'
p3113
aS'0848c0b383de36ec4ce15b0e030846c8'
p3114
aa(lp3115
S'usr/pkg/man/man1/perlfaq9.1'
p3116
aS'c5c3a9d872c594aeb13443cb8148864b'
p3117
aa(lp3118
S'usr/pkg/man/man1/perlothrtut.1'
p3119
aS'7cc01fce173357587bdcf126571ea01e'
p3120
aa(lp3121
S'usr/pkg/man/man1/perl589delta.1'
p3122
aS'ea06e44192e69ddd26b9a7748e6b31f7'
p3123
aa(lp3124
S'usr/pkg/man/man1/autoupdate.1'
p3125
aS'8f011c4e8d9b64e2c02392e03177af9f'
p3126
aa(lp3127
S'usr/pkg/man/man1/clear.1'
p3128
aS'0b7580225fac5219778d6ee9516ddc97'
p3129
aa(lp3130
S'usr/pkg/man/man1/perldgux.1'
p3131
aS'87120ca262b371218ef08cebd4f0e4a3'
p3132
aa(lp3133
S'usr/pkg/man/man1/perl594delta.1'
p3134
aS'3e34ffe166ccd2bf36e3d94e5cab8114'
p3135
aa(lp3136
S'usr/pkg/man/man1/rgrep.1'
p3137
aS'ad961b3b55a649198cb0512b1d38d930'
p3138
aa(lp3139
S'usr/pkg/man/man1/iconv.1'
p3140
aS'4bf5b4f0e113756497dcafcc621b5b46'
p3141
aa(lp3142
S'usr/pkg/man/man1/lzcmp.1'
p3143
aS'd13e50d6c595a7db7d9335d31436b6ac'
p3144
aa(lp3145
S'usr/pkg/man/man1/instmodsh.1'
p3146
aS'c2854f1afe4cf09c34b243444c804c95'
p3147
aa(lp3148
S'usr/pkg/man/man1/perlclib.1'
p3149
aS'09ebafb1bcee74e0025b22287b1b3447'
p3150
aa(lp3151
S'usr/pkg/man/man1/config.guess.1'
p3152
aS'c62ac8f2a2073b3dd154aae8c5ae7e66'
p3153
aa(lp3154
S'usr/pkg/man/man1/perldebtut.1'
p3155
aS'a089efe8763199ee2709687529acb656'
p3156
aa(lp3157
S'usr/pkg/man/man1/jed.1'
p3158
aS'90be0f11bb8eababf0c199e178b18f2a'
p3159
aa(lp3160
S'usr/pkg/man/man1/tic.1'
p3161
aS'9a946522c2af2c544e73f15b442955a2'
p3162
aa(lp3163
S'usr/pkg/man/man1/perlce.1'
p3164
aS'4833725b4e487bc6ed05276eb9d3bf26'
p3165
aa(lp3166
S'usr/pkg/man/man1/libnetcfg.1'
p3167
aS'288909b31cbf1d81d9c6042d473e2caf'
p3168
aa(lp3169
S'usr/pkg/man/man1/lzgrep.1'
p3170
aS'1bc510bb53292ece78561567fa9139df'
p3171
aa(lp3172
S'usr/pkg/man/man1/perldos.1'
p3173
aS'bd2e96e18297c37abcff89be4c4e37a7'
p3174
aa(lp3175
S'usr/pkg/man/man1/lzfgrep.1'
p3176
aS'1bc510bb53292ece78561567fa9139df'
p3177
aa(lp3178
S'usr/pkg/man/man1/perlfaq6.1'
p3179
aS'df1f7f5e27d5c0886bd433529151ea49'
p3180
aa(lp3181
S'usr/pkg/man/man1/nawk.1'
p3182
aS'46e4aba2c2723f6efb651096e76c3f9a'
p3183
aa(lp3184
S'usr/pkg/man/man1/msgmerge.1'
p3185
aS'd4879a0bfc1da012c6f73ac1987cf8a3'
p3186
aa(lp3187
S'usr/pkg/man/man1/perlrecharclass.1'
p3188
aS'ca3dbc7c28701c7d22926adc2625fcc9'
p3189
aa(lp3190
S'usr/pkg/man/man1/lzcat.1'
p3191
aS'66754bb71340a305dca35c1b8d2e5992'
p3192
aa(lp3193
S'usr/pkg/man/man1/lzma.1'
p3194
aS'66754bb71340a305dca35c1b8d2e5992'
p3195
aa(lp3196
S'usr/pkg/man/man1/perlmacosx.1'
p3197
aS'9072278d4f2f18e4c440251a9db46333'
p3198
aa(lp3199
S'usr/pkg/man/man1/perlhpux.1'
p3200
aS'f7d36b866df266028bfd04399feaa28e'
p3201
aa(lp3202
S'usr/pkg/man/man1/perlpodspec.1'
p3203
aS'78abbcc479c1dbff4279e86b77c72d42'
p3204
aa(lp3205
S'usr/pkg/man/man1/zile.1'
p3206
aS'2dfef6490109e0fe7fa97173c734d761'
p3207
aa(lp3208
S'usr/pkg/man/man1/perl595delta.1'
p3209
aS'a2e637809e25ba5580bb6ea78bd21137'
p3210
aa(lp3211
S'usr/pkg/man/man1/bzip2recover.1'
p3212
aS'00faf8cc310269914ab6af5e43e77e2a'
p3213
aa(lp3214
S'usr/pkg/man/man1/xzcmp.1'
p3215
aS'd13e50d6c595a7db7d9335d31436b6ac'
p3216
aa(lp3217
S'usr/pkg/man/man1/xzcat.1'
p3218
aS'66754bb71340a305dca35c1b8d2e5992'
p3219
aa(lp3220
S'usr/pkg/man/man1/perlembed.1'
p3221
aS'28b468d8dd0f3b1f6f6b43e9578dbba3'
p3222
aa(lp3223
S'usr/pkg/man/man1/perlvar.1'
p3224
aS'829e7dca25b9d93f8043bd6ab160d31b'
p3225
aa(lp3226
S'usr/pkg/man/man1/perlintro.1'
p3227
aS'134c37ab9341eb4dfb317d02ff09331e'
p3228
aa(lp3229
S'usr/pkg/man/man1/perlthanks.1'
p3230
aS'6de4887fc33c8c9e367da640504ffd91'
p3231
aa(lp3232
S'usr/pkg/man/man1/perlbot.1'
p3233
aS'20a7899939904a29d272eae9d0b2dfa3'
p3234
aa(lp3235
S'usr/pkg/man/man1/perlhurd.1'
p3236
aS'9e54570e19431a9891208abdab146c9a'
p3237
aa(lp3238
S'usr/pkg/man/man1/perl590delta.1'
p3239
aS'50905c17b77a07021eb8b0ec4226eafd'
p3240
aa(lp3241
S'usr/pkg/man/man1/perllol.1'
p3242
aS'256c7515488238b155f4b84b3a6049a1'
p3243
aa(lp3244
S'usr/pkg/man/man1/perlko.1'
p3245
aS'edfa016994156e439804bfb883aeb456'
p3246
aa(lp3247
S'usr/pkg/man/man1/perlop.1'
p3248
aS'58c4cad51b20be5661bbf9a6797c82e2'
p3249
aa(lp3250
S'usr/pkg/man/man1/autopoint.1'
p3251
aS'3550787a7c448c2ff3843bfce7c26ca0'
p3252
aa(lp3253
S'usr/pkg/man/man1/pstruct.1'
p3254
aS'6ce63806d89a75a27ecb3c4d22134938'
p3255
aa(lp3256
S'usr/pkg/man/man1/perldiag.1'
p3257
aS'939d4a5417a87411ed3f1e2e1eefabbd'
p3258
aa(lp3259
S'usr/pkg/man/man1/piconv.1'
p3260
aS'1270e295c0d6119a466c57537492f28d'
p3261
aa(lp3262
S'usr/pkg/man/man1/xzgrep.1'
p3263
aS'1bc510bb53292ece78561567fa9139df'
p3264
aa(lp3265
S'usr/pkg/man/man1/perlebcdic.1'
p3266
aS'd565d9d35974dc0f755628636408b225'
p3267
aa(lp3268
S'usr/pkg/man/man1/msgcat.1'
p3269
aS'e259cce4edcbb51be1c9184ca27b623f'
p3270
aa(lp3271
S'usr/pkg/man/man1/perltooc.1'
p3272
aS'f649ac609ac10914820dec7cc4bc475e'
p3273
aa(lp3274
S'usr/pkg/man/man1/xzfgrep.1'
p3275
aS'1bc510bb53292ece78561567fa9139df'
p3276
aa(lp3277
S'usr/pkg/man/man1/perlcygwin.1'
p3278
aS'f2f76358e7c87c3a2093410dd9b86521'
p3279
aa(lp3280
S'usr/pkg/man/man1/perlfaq7.1'
p3281
aS'e19dba142fbe437df6220933aa913df3'
p3282
aa(lp3283
S'usr/pkg/man/man1/xmlcatmgr.1'
p3284
aS'c68d51c6d3e5305a35f4558845831f6e'
p3285
aa(lp3286
S'usr/pkg/man/man1/autoreconf.1'
p3287
aS'867da5dc872c870c4b2abd39d028b3bb'
p3288
aa(lp3289
S'usr/pkg/man/man1/perl583delta.1'
p3290
aS'ba521ccdcc910ae54c7f6d7ca0b3293e'
p3291
aa(lp3292
S'usr/pkg/man/man1/podselect.1'
p3293
aS'fd2e7770fe441d6e28d828f2762d8cd9'
p3294
aa(lp3295
S'usr/pkg/man/man1/perlqnx.1'
p3296
aS'f263fabcd21124ed6698cca9bbc01250'
p3297
aa(lp3298
S'usr/pkg/man/man1/cpanp.1'
p3299
aS'1f1495e6a0985ee266b6ee43ed6f0749'
p3300
aa(lp3301
S'usr/pkg/man/man1/ngettext.1'
p3302
aS'69d12ac6d8a0a96207a118ebdc598a35'
p3303
aa(lp3304
S'usr/pkg/man/man1/autoconf.1'
p3305
aS'9f394aeb8bd355c0092fbbf5cef0c501'
p3306
aa(lp3307
S'usr/pkg/man/man1/perl573delta.1'
p3308
aS'a3371bafc88c3479900d8b043d4d7f95'
p3309
aa(lp3310
S'usr/pkg/man/man1/envsubst.1'
p3311
aS'e4cf38840346c03114d9d89d306d7041'
p3312
aa(lp3313
S'usr/pkg/man/man1/msgfilter.1'
p3314
aS'75b1a46f0e6952cd9367b5277fffbfea'
p3315
aa(lp3316
S'usr/pkg/man/man1/ifnames.1'
p3317
aS'109795cda86553d495226221e039dbb8'
p3318
aa(lp3319
S'usr/pkg/man/man1/perlfaq1.1'
p3320
aS'245141578d92911f4a87b95357e0a677'
p3321
aa(lp3322
S'usr/pkg/man/man1/pax.1'
p3323
aS'd468bf45f0e6780288e935b8297adf10'
p3324
aa(lp3325
S'usr/pkg/man/man1/psed.1'
p3326
aS'3a81ae2b894ac08ab1e5de3f01f648a7'
p3327
aa(lp3328
S'usr/pkg/man/man1/perlreref.1'
p3329
aS'5f6f1e64f17f3b63313425ea3b3551a9'
p3330
aa(lp3331
S'usr/pkg/man/man1/perlport.1'
p3332
aS'6b202be3cad3ed74360ce1e2de5b0c7b'
p3333
aa(lp3334
S'usr/pkg/man/man1/perlboot.1'
p3335
aS'31c8c5427c4b18a97762b915922cdce5'
p3336
aa(lp3337
S'usr/pkg/man/man1/perlvms.1'
p3338
aS'3fc0e54d69b77645f87389865c8529f8'
p3339
aa(lp3340
S'usr/pkg/man/man1/perlre.1'
p3341
aS'afd19634676c9e3df6306ef88d1fbd39'
p3342
aa(lp3343
S'usr/pkg/man/man1/perlfunc.1'
p3344
aS'98ce5a582346f4bbf15ec8fe81325282'
p3345
aa(lp3346
S'usr/pkg/man/man1/perlretut.1'
p3347
aS'b8fd6cdb9df1954d676952b758f7ff9b'
p3348
aa(lp3349
S'usr/pkg/man/man1/autom4te.1'
p3350
aS'659e044321fddd2acb360e52fb06df59'
p3351
aa(lp3352
S'usr/pkg/man/man1/curl-config.1'
p3353
aS'9b7fbba44cf5ce3d9705b73f66d33fe9'
p3354
aa(lp3355
S'usr/pkg/man/man1/infotocap.1'
p3356
aS'562c6a6c13621f6a1458a0a62ddb1273'
p3357
aa(lp3358
S'usr/pkg/man/man1/perlmodinstall.1'
p3359
aS'01b748715e404b6812fccd6cbfe175b8'
p3360
aa(lp3361
S'usr/pkg/man/man1/perlartistic.1'
p3362
aS'19655786c43f00374dc0d4094228c176'
p3363
aa(lp3364
S'usr/pkg/man/man1/perlapi.1'
p3365
aS'7560ed51f1a852db4b39034a98a94121'
p3366
aa(lp3367
S'usr/pkg/man/man1/perllinux.1'
p3368
aS'ce868244ae4935bf07d68f517586a1d8'
p3369
aa(lp3370
S'usr/pkg/man/man1/bunzip2.1'
p3371
aS'00faf8cc310269914ab6af5e43e77e2a'
p3372
aa(lp3373
S'usr/pkg/man/man1/perllocale.1'
p3374
aS'9feb2668afbe8a7c9840abd455fd480b'
p3375
aa(lp3376
S'usr/pkg/man/man1/bmake.1'
p3377
aS'a28ea8f615f2260efd3ba5c84a866e13'
p3378
aa(lp3379
S'usr/pkg/man/man1/automake.1'
p3380
aS'2bcfc3825a9b2e9c4301e5b8c7e26869'
p3381
aa(lp3382
S'usr/pkg/man/man1/perlwin32.1'
p3383
aS'eb7c46fe29cf7826dd46103ab6959bc9'
p3384
aa(lp3385
S'usr/pkg/man/man1/perlmachten.1'
p3386
aS'da6cc0e709478723ed3c9efef432188a'
p3387
aa(lp3388
S'usr/pkg/man/man1/perl588delta.1'
p3389
aS'865c6cfdf3f54369330a464327d348f0'
p3390
aa(lp3391
S'usr/pkg/man/man1/pkg_delete.1'
p3392
aS'020187b47ac4c701e45008cb5a913ca4'
p3393
aa(lp3394
S'usr/pkg/man/man1/perlstyle.1'
p3395
aS'dfc7d04a4474f8b66fa09d116eb17f94'
p3396
aa(lp3397
S'usr/pkg/man/man1/perltrap.1'
p3398
aS'275600b144d14b115888bb6f8b3cb602'
p3399
aa(lp3400
S'usr/pkg/man/man1/find2perl.1'
p3401
aS'c24896a418faacb7138bd9f05a5d56b0'
p3402
aa(lp3403
S'usr/pkg/man/man1/perluts.1'
p3404
aS'f00ed7144b07cd37a0b1575cea3dd4ac'
p3405
aa(lp3406
S'usr/pkg/man/man1/perlreftut.1'
p3407
aS'3d05fc8e8aaf0c75a30b5a89e9c73924'
p3408
aa(lp3409
S'usr/pkg/man/man1/perl58delta.1'
p3410
aS'c6cd65ded60177b1f257b55c0804f878'
p3411
aa(lp3412
S'usr/pkg/man/man1/lzegrep.1'
p3413
aS'1bc510bb53292ece78561567fa9139df'
p3414
aa(lp3415
S'usr/pkg/man/man1/perlref.1'
p3416
aS'86803ff4d8f577b9d58e58a1da983132'
p3417
aa(lp3418
S'usr/pkg/man/man1/perldoc.1'
p3419
aS'9fc639a9affa328d9d65a6f2fcb1561b'
p3420
aa(lp3421
S'usr/pkg/man/man1/perlcheat.1'
p3422
aS'513d505f5934d24229291517a1b77cfe'
p3423
aa(lp3424
S'usr/pkg/man/man1/perlfreebsd.1'
p3425
aS'3f1dec6eed56494da4a683d0b516ce4d'
p3426
aa(lp3427
S'usr/pkg/man/man1/perlmod.1'
p3428
aS'cbd8c15def980fea918f9564e12e383f'
p3429
aa(lp3430
S'usr/pkg/man/man1/info.1'
p3431
aS'ba1f4ea83e78e5d69508784859fa48c9'
p3432
aa(lp3433
S'usr/pkg/man/man1/jpegtran.1'
p3434
aS'6d648b537f4c0e3355dbe351ff89c2cf'
p3435
aa(lp3436
S'usr/pkg/man/man1/perltoc.1'
p3437
aS'ab496ffe1cf3e7272c3188aab21c176a'
p3438
aa(lp3439
S'usr/pkg/man/man1/perlfork.1'
p3440
aS'ae2f4e56ecf66abcef4a7939f073de74'
p3441
aa(lp3442
S'usr/pkg/man/man1/perlbook.1'
p3443
aS'3185202cd526ea06170d710b52ac2781'
p3444
aa(lp3445
S'usr/pkg/man/man1/perldelta.1'
p3446
aS'dd3b3857b52935747b0d2910eea84534'
p3447
aa(lp3448
S'usr/pkg/man/man1/xsubpp.1'
p3449
aS'c4c79443090d406a05b589097e523cbe'
p3450
aa(lp3451
S'usr/pkg/man/man1/automake-1.11.1'
p3452
aS'f29b1a0bf27c57e39201bf0acfb432f4'
p3453
aa(lp3454
S'usr/pkg/man/man1/perl572delta.1'
p3455
aS'8213199c0398672f88eac88d9cd37f27'
p3456
aa(lp3457
S'usr/pkg/man/man1/f2c.1'
p3458
aS'5c25d36861ce56df34767fca2f350618'
p3459
aa(lp3460
S'usr/pkg/man/man1/aclocal.1'
p3461
aS'11342a40e23abe31ec1855d1250287b9'
p3462
aa(lp3463
S'usr/pkg/man/man1/msguniq.1'
p3464
aS'9f121b42adee27aa8a5f224b12287dba'
p3465
aa(lp3466
S'usr/pkg/man/man1/perlglossary.1'
p3467
aS'7e4eed38c7f853d365bf1d2fc9f03d8d'
p3468
aa(lp3469
S'usr/pkg/man/man1/ptar.1'
p3470
aS'879c35c2efcda64ffc6b60d55b6e9fc2'
p3471
aa(lp3472
S'usr/pkg/man/man1/xmlcatalog.1'
p3473
aS'509c91cebbb5ce2176be5e2e0165ff5c'
p3474
aa(lp3475
S'usr/pkg/man/man1/cmakemodules.1'
p3476
aS'e390b865316a7048660ad665f25ee90c'
p3477
aa(lp3478
S'usr/pkg/man/man1/texi2dvi.1'
p3479
aS'9ea012c682cf4d7bd366e7107c358ab8'
p3480
aa(lp3481
S'usr/pkg/man/man1/cpan2dist.1'
p3482
aS'34d8477710d5a184b355e4ea1e2e5e8c'
p3483
aa(lp3484
S'usr/pkg/man/man1/idn.1'
p3485
aS'531125d4bcb48c3fb6aa97730872f463'
p3486
aa(lp3487
S'usr/pkg/man/man1/perlfaq3.1'
p3488
aS'93a50bc886b7cc48afc96e80c0ac31ae'
p3489
aa(lp3490
S'usr/pkg/man/man1/c2ph.1'
p3491
aS'6ce63806d89a75a27ecb3c4d22134938'
p3492
aa(lp3493
S'usr/pkg/man/man1/config.sub.1'
p3494
aS'c62ac8f2a2073b3dd154aae8c5ae7e66'
p3495
aa(lp3496
S'usr/pkg/man/man1/perlxs.1'
p3497
aS'e4b9f3de5b82b672d20e7d68172cfbae'
p3498
aa(lp3499
S'usr/pkg/man/man1/cmakevars.1'
p3500
aS'de20f86bc9e10efda903fba1be883967'
p3501
aa(lp3502
S'usr/pkg/man/man1/perlcn.1'
p3503
aS'bc3297695fecea9d6030061ea247275a'
p3504
aa(lp3505
S'usr/pkg/man/man1/perl593delta.1'
p3506
aS'c1782d2c1c5fd3a9663a9b30a8ff39df'
p3507
aa(lp3508
S'usr/pkg/man/man1/perl592delta.1'
p3509
aS'4f3da96f0d9190dfdb32868c17b18aac'
p3510
aa(lp3511
S'usr/pkg/man/man1/msginit.1'
p3512
aS'9bb35e1bcb05e6d38f971aac6fc81b75'
p3513
aa.