(lp0
(lp1
S'usr/pkg/bin/xzmore'
p2
aS'c4d4d2eb4cace478c0896225ef1bff77'
p3
aa(lp4
S'usr/pkg/bin/pax'
p5
aS'd0e6690994b6d0639eb7271d8b58f054'
p6
aa(lp7
S'usr/pkg/bin/pod2latex'
p8
aS'0f4a9fcec4d68e856527b5be9923e40a'
p9
aa(lp10
S'usr/pkg/bin/f2c-f77'
p11
aS'e592ad4e8d28b7fb2d8f7ae70e84feea'
p12
aa(lp13
S'usr/pkg/bin/exifautotran'
p14
aS'7735f16bb346b4d0c0b9a675273db830'
p15
aa(lp16
S'usr/pkg/bin/perldoc'
p17
aS'2205b438802009a08ab037fb2f32830d'
p18
aa(lp19
S'usr/pkg/bin/h2ph'
p20
aS'c855af60330120b7707a4bcf0a6d8206'
p21
aa(lp22
S'usr/pkg/bin/xzcmp'
p23
aS'97156d1abc379edad0ee98e7122c8ad5'
p24
aa(lp25
S'usr/pkg/bin/cpanp-run-perl'
p26
aS'731f118b9005b775d75e968fb12d1c43'
p27
aa(lp28
S'usr/pkg/bin/hg'
p29
aS'521827c4f7f630e2afaf6673903cd3bd'
p30
aa(lp31
S'usr/pkg/bin/db4_stat'
p32
aS'4218e4e21bfa998a58d9948b6dd1e9a9'
p33
aa(lp34
S'usr/pkg/bin/simple'
p35
aS'eb35d5e6789913d940c744c5ddfa621d'
p36
aa(lp37
S'usr/pkg/bin/db4_printlog'
p38
aS'6c6ec49a6eeb7c5b942144e38b1478e6'
p39
aa(lp40
S'usr/pkg/bin/xmlcatmgr'
p41
aS'0ee6fcb0f3598bf2fd7ed4c708da850c'
p42
aa(lp43
S'usr/pkg/bin/autoupdate'
p44
aS'df98ad298f5eeedd259389f4bb051895'
p45
aa(lp46
S'usr/pkg/bin/lzcat'
p47
aS'07fd554e0c657418d594d5345f8dc459'
p48
aa(lp49
S'usr/pkg/bin/jpegexiforient'
p50
aS'096cbdf79fddff6a23465bef72144649'
p51
aa(lp52
S'usr/pkg/bin/lzmore'
p53
aS'c4d4d2eb4cace478c0896225ef1bff77'
p54
aa(lp55
S'usr/pkg/bin/automake'
p56
aS'2a33cf9ea4c7035511d086978e0b3e91'
p57
aa(lp58
S'usr/pkg/bin/reset'
p59
aS'4695305b7aa77997c63433a8f899ed37'
p60
aa(lp61
S'usr/pkg/bin/easy_install-2.6'
p62
aS'4eb6979bfb5526af1b2afb220f3ae49b'
p63
aa(lp64
S'usr/pkg/bin/perlivp'
p65
aS'ad11583ddf4f68f4176eb8d93b4e2cc0'
p66
aa(lp67
S'usr/pkg/bin/f2c'
p68
aS'66f907356f151abe7bb267d8cebb7090'
p69
aa(lp70
S'usr/pkg/bin/tput'
p71
aS'2d0dd2df2bb8a4cd839d355833dd7622'
p72
aa(lp73
S'usr/pkg/bin/autopoint'
p74
aS'62b24910d514f24dc9feb45db5fd83be'
p75
aa(lp76
S'usr/pkg/bin/bzip2recover'
p77
aS'bfdd7af71ffbc9bee3b06dce2e9cbb98'
p78
aa(lp79
S'usr/pkg/bin/lzless'
p80
aS'2107dccc60311961b71c916f218f9581'
p81
aa(lp82
S'usr/pkg/bin/lzgrep'
p83
aS'7321271d0c2b4b7477b5d643827ef7f6'
p84
aa(lp85
S'usr/pkg/bin/infokey'
p86
aS'c930a302cd2ba787db7b2ca54ca724ba'
p87
aa(lp88
S'usr/pkg/bin/piconv'
p89
aS'f2004d73b7c02b60ec48f1033c08400d'
p90
aa(lp91
S'usr/pkg/bin/msgfmt'
p92
aS'26d08c0ed971ffed18fa7f0010c6728d'
p93
aa(lp94
S'usr/pkg/bin/db4_recover'
p95
aS'f7f4288473fb0919897c8860e84c444f'
p96
aa(lp97
S'usr/pkg/bin/pod2html'
p98
aS'3ec86c05977f298cc23f6373e189cc64'
p99
aa(lp100
S'usr/pkg/bin/unxz'
p101
aS'07fd554e0c657418d594d5345f8dc459'
p102
aa(lp103
S'usr/pkg/bin/python2.6'
p104
aS'1b76371920c78d96f5cc12ec71613bab'
p105
aa(lp106
S'usr/pkg/bin/bmake'
p107
aS'f85572423f22cb2a8f1853e81edaecef'
p108
aa(lp109
S'usr/pkg/bin/pod2man'
p110
aS'1594c4c1c9f5fa4736ad90aa60eeabda'
p111
aa(lp112
S'usr/pkg/bin/instmodsh'
p113
aS'0aaf2a1f1d4a4302267d6cf9a08b1b01'
p114
aa(lp115
S'usr/pkg/bin/digest'
p116
aS'175598883bdd9a8d1091d5251b4b545b'
p117
aa(lp118
S'usr/pkg/bin/xzfgrep'
p119
aS'7321271d0c2b4b7477b5d643827ef7f6'
p120
aa(lp121
S'usr/pkg/bin/msgen'
p122
aS'1995e69a7616436a999afcb99db0396c'
p123
aa(lp124
S'usr/pkg/bin/gettextize'
p125
aS'fe5ab0073a3962f44cefa979c7f6ae84'
p126
aa(lp127
S'usr/pkg/bin/berkeley_db4_svc'
p128
aS'968a68a54f38b27b15794a39c165149a'
p129
aa(lp130
S'usr/pkg/bin/libtoolize'
p131
aS'69fb3cfdca8153aecdc39af099b2c0d2'
p132
aa(lp133
S'usr/pkg/bin/perl'
p134
aS'd127ef2297d18069ecc7eb34f64eb09a'
p135
aa(lp136
S'usr/pkg/bin/lzmainfo'
p137
aS'4c2cf15c13632da0e7c0c70cd79f0ecc'
p138
aa(lp139
S'usr/pkg/bin/texi2dvi'
p140
aS'e41a127ff0b7b81f4479fe5fc3103f70'
p141
aa(lp142
S'usr/pkg/bin/smtpd2.6.py'
p143
aS'a83f70d79bf213ea3483cf4a6fe1a80f'
p144
aa(lp145
S'usr/pkg/bin/xslt-config'
p146
aS'4eaab6c8af04be3083d199a3825627c3'
p147
aa(lp148
S'usr/pkg/bin/cpanp'
p149
aS'33a5a103ea3c2596f92facb47e4e5a8a'
p150
aa(lp151
S'usr/pkg/bin/autoheader'
p152
aS'd52d1c8c9f4acccb3243364ab2017a92'
p153
aa(lp154
S'usr/pkg/bin/xmlto'
p155
aS'05cf9fbc4f6a5bd3ae3561a6e1846206'
p156
aa(lp157
S'usr/pkg/bin/msggrep'
p158
aS'cfa2b5c2c1ad2f0d526d91300812160a'
p159
aa(lp160
S'usr/pkg/bin/s2p'
p161
aS'1072242ff6b5f666feb2a34f735aeb4a'
p162
aa(lp163
S'usr/pkg/bin/pl2pm'
p164
aS'9641a4593fecc3d8ad791324bc2c0995'
p165
aa(lp166
S'usr/pkg/bin/clear'
p167
aS'af0e90e8fd0a949c79585c0baa4a7d58'
p168
aa(lp169
S'usr/pkg/bin/xzgrep'
p170
aS'7321271d0c2b4b7477b5d643827ef7f6'
p171
aa(lp172
S'usr/pkg/bin/iconv'
p173
aS'9e9c6cee8676a1a45dbd0b9f759cb4d4'
p174
aa(lp175
S'usr/pkg/bin/cpack'
p176
aS'0714f59277de253f8dca639a06bebcb8'
p177
aa(lp178
S'usr/pkg/bin/xgettext'
p179
aS'001b3a15e0911634a88ed671bb1eb0df'
p180
aa(lp181
S'usr/pkg/bin/a2x'
p182
aS'0110746ef1e12ab46357a2109bbf502b'
p183
aa(lp184
S'usr/pkg/bin/libnetcfg'
p185
aS'865442abe6fb6270fa7fadb41fdc0353'
p186
aa(lp187
S'usr/pkg/bin/db4_codegen'
p188
aS'f17b69fd94d43688cae3e02790c8afdc'
p189
aa(lp190
S'usr/pkg/bin/bashbug'
p191
aS'd6688a6e50f3a91e34159a347f592e1e'
p192
aa(lp193
S'usr/pkg/bin/msgexec'
p194
aS'a546ed3b384e0e59f9654bb74542c567'
p195
aa(lp196
S'usr/pkg/bin/db4_upgrade'
p197
aS'f57f7bd96624b6d616af9c5c7202fd0f'
p198
aa(lp199
S'usr/pkg/bin/unlzma'
p200
aS'07fd554e0c657418d594d5345f8dc459'
p201
aa(lp202
S'usr/pkg/bin/db4_deadlock'
p203
aS'aae796199ee137a72bb1f7af8826745b'
p204
aa(lp205
S'usr/pkg/bin/dprofpp'
p206
aS'0f6f71d1efa87544ed90110d426cd5f5'
p207
aa(lp208
S'usr/pkg/bin/libgcrypt-config'
p209
aS'e5e9e7fd40bcaee9dabc7f2a3e1f3385'
p210
aa(lp211
S'usr/pkg/bin/lgrep'
p212
aS'6685b9a416ae833d99a9015171405a0d'
p213
aa(lp214
S'usr/pkg/bin/perl5.10.1'
p215
aS'd127ef2297d18069ecc7eb34f64eb09a'
p216
aa(lp217
S'usr/pkg/bin/corelist'
p218
aS'7099ab56a066b37502de26fc4e6e9966'
p219
aa(lp220
S'usr/pkg/bin/ifnames-2.13'
p221
aS'e479d0c1e13b18e9495b1cf6bc68ba78'
p222
aa(lp223
S'usr/pkg/bin/pod2usage'
p224
aS'de18db9bc074c13ed6f84190902dd3ac'
p225
aa(lp226
S'usr/pkg/bin/ngettext'
p227
aS'41eb8fdedb9db7b4bcd08622c0ef9f5a'
p228
aa(lp229
S'usr/pkg/bin/xmlwf'
p230
aS'0a66e405d6955b7726f65bd0f19c975e'
p231
aa(lp232
S'usr/pkg/bin/texi2pdf'
p233
aS'40122c777c0fecf4dc331b85313703c5'
p234
aa(lp235
S'usr/pkg/bin/msgcat'
p236
aS'51a842275f55bcd4e34e4d0ffa584f8d'
p237
aa(lp238
S'usr/pkg/bin/bash'
p239
aS'd87c378f6544c5249e5a582cc4da90ac'
p240
aa(lp241
S'usr/pkg/bin/gpg-error'
p242
aS'9a6dd7ad4de52d0e76f34a4db0263065'
p243
aa(lp244
S'usr/pkg/bin/curl-config'
p245
aS'8c3c4eba3256e1612f968089bcfaf8a3'
p246
aa(lp247
S'usr/pkg/bin/lzdiff'
p248
aS'97156d1abc379edad0ee98e7122c8ad5'
p249
aa(lp250
S'usr/pkg/bin/xzdec'
p251
aS'1659c0186315430d03c7b38709f46a13'
p252
aa(lp253
S'usr/pkg/bin/bzcat'
p254
aS'a3d3280e46cdb5d9aa002f8686e04026'
p255
aa(lp256
S'usr/pkg/bin/ifnames'
p257
aS'aa69db7e3c37b48fb79fe157e1cd92fd'
p258
aa(lp259
S'usr/pkg/bin/xmlrpc-c-config'
p260
aS'87c9e1b939e891eee33e99bf8fd3e4b5'
p261
aa(lp262
S'usr/pkg/bin/xmllint'
p263
aS'393e98bf12ea164bee49224ce34a8311'
p264
aa(lp265
S'usr/pkg/bin/djpeg'
p266
aS'3e7a82693a2546df94ad3a9f23fbfb64'
p267
aa(lp268
S'usr/pkg/bin/mktemp'
p269
aS'ddbfe6813e45d53439b1262b57d52aa3'
p270
aa(lp271
S'usr/pkg/bin/jed-script'
p272
aS'bbbb3ac383077411da338eba524547c7'
p273
aa(lp274
S'usr/pkg/bin/lzma'
p275
aS'07fd554e0c657418d594d5345f8dc459'
p276
aa(lp277
S'usr/pkg/bin/msgattrib'
p278
aS'1beb8ba6a679d5a4d9d632035fb27068'
p279
aa(lp280
S'usr/pkg/bin/webbot'
p281
aS'6cb33b956c77c9197a223ea63e556a60'
p282
aa(lp283
S'usr/pkg/bin/pdftexi2dvi'
p284
aS'5efbf609707a96ceee16fac1746acdaa'
p285
aa(lp286
S'usr/pkg/bin/autom4te'
p287
aS'17c382c66f0af3f90b84dd869dc4038e'
p288
aa(lp289
S'usr/pkg/bin/libpng12-config'
p290
aS'6f57a5606c1d71e1536d181ae2e6b8c5'
p291
aa(lp292
S'usr/pkg/bin/aclocal-1.4'
p293
aS'29c8b641eef3ae14611839d90cc5fadd'
p294
aa(lp295
S'usr/pkg/bin/lv'
p296
aS'6685b9a416ae833d99a9015171405a0d'
p297
aa(lp298
S'usr/pkg/bin/idn'
p299
aS'dcc54039e8e53fec3e6d6f5d02b6629b'
p300
aa(lp301
S'usr/pkg/bin/autoconf-2.13'
p302
aS'bef873bf979ab430aa93d8b80e7fc08f'
p303
aa(lp304
S'usr/pkg/bin/xz'
p305
aS'07fd554e0c657418d594d5345f8dc459'
p306
aa(lp307
S'usr/pkg/bin/jpegtran'
p308
aS'9f187dadabf022412a8bb8b96db55c95'
p309
aa(lp310
S'usr/pkg/bin/rdjpgcom'
p311
aS'81cbb91d795f970fdc485f824da7182c'
p312
aa(lp313
S'usr/pkg/bin/nbsed'
p314
aS'af0da10fa96ea66b099f03dca5bb9fab'
p315
aa(lp316
S'usr/pkg/bin/cpio'
p317
aS'd0e6690994b6d0639eb7271d8b58f054'
p318
aa(lp319
S'usr/pkg/bin/shlibtool'
p320
aS'd101425e2eb76028a3c7ae6f56b5035b'
p321
aa(lp322
S'usr/pkg/bin/xmlrpc'
p323
aS'83c73b61b1af24f894c6eb6babca81c1'
p324
aa(lp325
S'usr/pkg/bin/cppunit-config'
p326
aS'd0d27dd1af8d1696c5e96cc99c9c6ecf'
p327
aa(lp328
S'usr/pkg/bin/cmake'
p329
aS'bf9749aff2849324802227e38abb452c'
p330
aa(lp331
S'usr/pkg/bin/msguniq'
p332
aS'22ca79e5e902e3a1a4d16ce71923c858'
p333
aa(lp334
S'usr/pkg/bin/cjpeg'
p335
aS'9ca920c75cd123c2d1060b522c2056f6'
p336
aa(lp337
S'usr/pkg/bin/db4_load'
p338
aS'5b67d5d5c7fef2fa26a2d3ae6949f404'
p339
aa(lp340
S'usr/pkg/bin/install-info'
p341
aS'd0f65f496c30632a859c9364870bfc5b'
p342
aa(lp343
S'usr/pkg/bin/msgfilter'
p344
aS'45890cdb925b2875c24fc163924a259e'
p345
aa(lp346
S'usr/pkg/bin/ctest'
p347
aS'4b929cc7132038abf1ec038a07fe4968'
p348
aa(lp349
S'usr/pkg/bin/autoreconf'
p350
aS'6195bb4e8ca0fe2017f7890f3a976c6f'
p351
aa(lp352
S'usr/pkg/bin/lzcmp'
p353
aS'97156d1abc379edad0ee98e7122c8ad5'
p354
aa(lp355
S'usr/pkg/bin/autoheader-2.13'
p356
aS'6892c1779db94b4e1123e9cb332b41f7'
p357
aa(lp358
S'usr/pkg/bin/install-sh'
p359
aS'dff6a0a07cc1706a221c121dbffcf20a'
p360
aa(lp361
S'usr/pkg/bin/nawk'
p362
aS'7036672f7bedf22854d6fe3c2d65afea'
p363
aa(lp364
S'usr/pkg/bin/zile'
p365
aS'5e886a925b27a73272d665388d6e66c1'
p366
aa(lp367
S'usr/pkg/bin/pod2text'
p368
aS'952641e566adc624ea745e1525680ea7'
p369
aa(lp370
S'usr/pkg/bin/autoreconf-2.13'
p371
aS'e79b2deff6b81143b376f15be7c9b4db'
p372
aa(lp373
S'usr/pkg/bin/h2xs'
p374
aS'34ae95f57eea8430949256c038ad2b3f'
p375
aa(lp376
S'usr/pkg/bin/xzegrep'
p377
aS'7321271d0c2b4b7477b5d643827ef7f6'
p378
aa(lp379
S'usr/pkg/bin/db4_archive'
p380
aS'c83fcf8abcebd0cb3a400b528d60d514'
p381
aa(lp382
S'usr/pkg/bin/texindex'
p383
aS'a981b57b982fa3e75f4ef89614dc239f'
p384
aa(lp385
S'usr/pkg/bin/infotocap'
p386
aS'6104f942f3d08642cbba097711587c85'
p387
aa(lp388
S'usr/pkg/bin/a2p'
p389
aS'dc521d235560fad83e574da1d4effaca'
p390
aa(lp391
S'usr/pkg/bin/DllPlugInTester'
p392
aS'59b7baf54df631f439fe90033d3f463a'
p393
aa(lp394
S'usr/pkg/bin/bunzip2'
p395
aS'a3d3280e46cdb5d9aa002f8686e04026'
p396
aa(lp397
S'usr/pkg/bin/msgconv'
p398
aS'd215649a45d9ca0bed547bb994d11f51'
p399
aa(lp400
S'usr/pkg/bin/c2ph'
p401
aS'7aafbf90153a3f3962f09fb1af21ea37'
p402
aa(lp403
S'usr/pkg/bin/py26-manage-eggs'
p404
aS'1e04811e24892b9213b3ef03db1b47e1'
p405
aa(lp406
S'usr/pkg/bin/ncurses5-config'
p407
aS'169d4fdd378e9702d0bcf4585efbdd76'
p408
aa(lp409
S'usr/pkg/bin/aclocal-1.11'
p410
aS'ed6eb0cfacbc9dc842429dc1a0c3b654'
p411
aa(lp412
S'usr/pkg/bin/db4_checkpoint'
p413
aS'01fb869d4e352c92127942d11b1c542f'
p414
aa(lp415
S'usr/pkg/bin/automake-1.11'
p416
aS'2a33cf9ea4c7035511d086978e0b3e91'
p417
aa(lp418
S'usr/pkg/bin/autoconf'
p419
aS'dd4faf8f354ad71ff885b4c27c6bbf75'
p420
aa(lp421
S'usr/pkg/bin/www'
p422
aS'b58185293c4337f3ef1e26ba118649a8'
p423
aa(lp424
S'usr/pkg/bin/automake-1.4'
p425
aS'250c9f9f5ed2d5989f3fb576bd374d76'
p426
aa(lp427
S'usr/pkg/bin/aclocal'
p428
aS'ed6eb0cfacbc9dc842429dc1a0c3b654'
p429
aa(lp430
S'usr/pkg/bin/jed'
p431
aS'bbbb3ac383077411da338eba524547c7'
p432
aa(lp433
S'usr/pkg/bin/cpan'
p434
aS'2320f68f3519cf9f4cd6a2e0c53ccc6d'
p435
aa(lp436
S'usr/pkg/bin/podchecker'
p437
aS'766306c57092fcedeec6f299565b9234'
p438
aa(lp439
S'usr/pkg/bin/xzdiff'
p440
aS'97156d1abc379edad0ee98e7122c8ad5'
p441
aa(lp442
S'usr/pkg/bin/perlbug'
p443
aS'fc3b70e6530b427b9a96513ac7c87b32'
p444
aa(lp445
S'usr/pkg/bin/pkg_install-info'
p446
aS'c14e49c9eaa60fdd67c5d32b3157a79b'
p447
aa(lp448
S'usr/pkg/bin/lzegrep'
p449
aS'7321271d0c2b4b7477b5d643827ef7f6'
p450
aa(lp451
S'usr/pkg/bin/prove'
p452
aS'4a8d4378b76b61032e92d9c5fc91a252'
p453
aa(lp454
S'usr/pkg/bin/find2perl'
p455
aS'0bf2294c5f828dc3d42062c28317455a'
p456
aa(lp457
S'usr/pkg/bin/bjam'
p458
aS'609af2f7706fbe36002db19db9363222'
p459
aa(lp460
S'usr/pkg/bin/gettext'
p461
aS'cf8f654fe015c34fd9df147f6d38bf97'
p462
aa(lp463
S'usr/pkg/bin/info'
p464
aS'3e90dc229946fe3c7df34ed716b345a0'
p465
aa(lp466
S'usr/pkg/bin/hmac256'
p467
aS'5d6d3892048ba9d9b5384fd6baf7c114'
p468
aa(lp469
S'usr/pkg/bin/autoscan'
p470
aS'87ba7220962904324431d26d2414ae78'
p471
aa(lp472
S'usr/pkg/bin/curl'
p473
aS'45e205efeb2358d4090f6840e1fd26ba'
p474
aa(lp475
S'usr/pkg/bin/makeinfo'
p476
aS'0ff3d20caea1fd4eb64a38dbdcd10832'
p477
aa(lp478
S'usr/pkg/bin/getopt'
p479
aS'baaeaa385d3e5e0738523b87a8aaa7d4'
p480
aa(lp481
S'usr/pkg/bin/lzfgrep'
p482
aS'7321271d0c2b4b7477b5d643827ef7f6'
p483
aa(lp484
S'usr/pkg/bin/ptar'
p485
aS'9f7a6c6a2d90bac31abb17d74c827ff5'
p486
aa(lp487
S'usr/pkg/bin/db4_verify'
p488
aS'1000798b614558eb9b32ce6dd43195d9'
p489
aa(lp490
S'usr/pkg/bin/toe'
p491
aS'18070ed6f659130f73bdd8ac79b03621'
p492
aa(lp493
S'usr/pkg/bin/swig'
p494
aS'82507378a1eff44ee264efa1207cd282'
p495
aa(lp496
S'usr/pkg/bin/enc2xs'
p497
aS'1fc952e35bb84b6af9d00609f344d07e'
p498
aa(lp499
S'usr/pkg/bin/gpg-error-config'
p500
aS'e5ececcdd09fbc235627397eca3335b7'
p501
aa(lp502
S'usr/pkg/bin/msgcomm'
p503
aS'c80282a75a8d9d4413b50182657f58b2'
p504
aa(lp505
S'usr/pkg/bin/cpan2dist'
p506
aS'9560f3433b26f37e645c5422442e5283'
p507
aa(lp508
S'usr/pkg/bin/msgunfmt'
p509
aS'6951f89d1b36546627ffdc47cd9ae732'
p510
aa(lp511
S'usr/pkg/bin/bzip2'
p512
aS'a3d3280e46cdb5d9aa002f8686e04026'
p513
aa(lp514
S'usr/pkg/bin/autoupdate-2.13'
p515
aS'cce561dbb7c2bade73c4b5929cdf3c87'
p516
aa(lp517
S'usr/pkg/bin/infocmp'
p518
aS'8fccb1c2ffe4caa8e3aa45ab2e8af81a'
p519
aa(lp520
S'usr/pkg/bin/wrjpgcom'
p521
aS'78953fc3aebfee817c8dacb7d709f968'
p522
aa(lp523
S'usr/pkg/bin/dumpsexp'
p524
aS'807f6697f78aacc19a2598c08c036910'
p525
aa(lp526
S'usr/pkg/bin/ptardiff'
p527
aS'a1457641809050e6e38e7bdb8bc229fa'
p528
aa(lp529
S'usr/pkg/bin/envsubst'
p530
aS'6c458b0f30f96a2344ecfbc7f7ee26b4'
p531
aa(lp532
S'usr/pkg/bin/db4_dump'
p533
aS'a0c122dfa5e4c3e9dd37cdd3b5e36d92'
p534
aa(lp535
S'usr/pkg/bin/psed'
p536
aS'1072242ff6b5f666feb2a34f735aeb4a'
p537
aa(lp538
S'usr/pkg/bin/autoscan-2.13'
p539
aS'db1f9e20cfe6b6a63865ee108f101a5a'
p540
aa(lp541
S'usr/pkg/bin/lzmadec'
p542
aS'6ac95829d704f6896ab0d96eb4b9342d'
p543
aa(lp544
S'usr/pkg/bin/xmlcatalog'
p545
aS'dc6218d10c6ae53fb9f315aa84eaca92'
p546
aa(lp547
S'usr/pkg/bin/pkg-config'
p548
aS'67c5f2309dd3e615ec2cccd1bb88810f'
p549
aa(lp550
S'usr/pkg/bin/libpng-config'
p551
aS'6f57a5606c1d71e1536d181ae2e6b8c5'
p552
aa(lp553
S'usr/pkg/bin/db4_hotbackup'
p554
aS'a5eda79d7819d0bdbe55c748f29c17f9'
p555
aa(lp556
S'usr/pkg/bin/msgcmp'
p557
aS'ea49b095fd894e63d2c452e831269fb0'
p558
aa(lp559
S'usr/pkg/bin/w3c'
p560
aS'7f627585802723bb3b696b90b973dd16'
p561
aa(lp562
S'usr/pkg/bin/python2.6-config'
p563
aS'e3dac428d9131e3a1d3449de970903b2'
p564
aa(lp565
S'usr/pkg/bin/rgrep'
p566
aS'ac0491ea70bbca823e8116a3b4665760'
p567
aa(lp568
S'usr/pkg/bin/ccmake'
p569
aS'e5cc32a1dc644b8a5cfd9afeaba5ea50'
p570
aa(lp571
S'usr/pkg/bin/xsubpp'
p572
aS'8d51328fe00191cc41cfc72cf242da87'
p573
aa(lp574
S'usr/pkg/bin/xzless'
p575
aS'2107dccc60311961b71c916f218f9581'
p576
aa(lp577
S'usr/pkg/bin/tic'
p578
aS'6104f942f3d08642cbba097711587c85'
p579
aa(lp580
S'usr/pkg/bin/splain'
p581
aS'd99595a401fbbdf8a011844a0bf89e64'
p582
aa(lp583
S'usr/pkg/bin/perllink'
p584
aS'b7a2bb08f8916350abd8f3ac3e9ba84e'
p585
aa(lp586
S'usr/pkg/bin/xzcat'
p587
aS'07fd554e0c657418d594d5345f8dc459'
p588
aa(lp589
S'usr/pkg/bin/tset'
p590
aS'4695305b7aa77997c63433a8f899ed37'
p591
aa(lp592
S'usr/pkg/bin/msginit'
p593
aS'e581fb009c732608a69c4926f2337fd7'
p594
aa(lp595
S'usr/pkg/bin/xmlrpc_transport'
p596
aS'1f221cd486b26cb30e9e6d7d9dcdaf75'
p597
aa(lp598
S'usr/pkg/bin/libtool'
p599
aS'8889e42758ccb40885f033727dfdd85d'
p600
aa(lp601
S'usr/pkg/bin/config_data'
p602
aS'01fb4ff3378433915a13f905bb1e8876'
p603
aa(lp604
S'usr/pkg/bin/libwww-config'
p605
aS'80cbb8159927a3cba3b413182144074a'
p606
aa(lp607
S'usr/pkg/bin/asciidoc'
p608
aS'2bc1eb058a6a11481b1640b9dc27d5d4'
p609
aa(lp610
S'usr/pkg/bin/msgmerge'
p611
aS'74c188690beac773ee6be6f99c4b7a22'
p612
aa(lp613
S'usr/pkg/bin/xmlif'
p614
aS'8cad3a5158aaa0d83c7d71e7ecd4694a'
p615
aa(lp616
S'usr/pkg/bin/2to3'
p617
aS'66e4b0c6f39a4cbc94dfb3a54b31d7d5'
p618
aa(lp619
S'usr/pkg/bin/perlthanks'
p620
aS'fc3b70e6530b427b9a96513ac7c87b32'
p621
aa(lp622
S'usr/pkg/bin/captoinfo'
p623
aS'6104f942f3d08642cbba097711587c85'
p624
aa(lp625
S'usr/pkg/bin/pstruct'
p626
aS'7aafbf90153a3f3962f09fb1af21ea37'
p627
aa(lp628
S'usr/pkg/bin/xsltproc'
p629
aS'b74c7c59600955af90c6d76d819d7cff'
p630
aa(lp631
S'usr/pkg/bin/gm4'
p632
aS'e64a1587d0f1ff02aa43cd9e8b1ed54e'
p633
aa(lp634
S'usr/pkg/bin/xml2-config'
p635
aS'a767cd0bb556f67d953b2cb6b054e35b'
p636
aa(lp637
S'usr/pkg/bin/podselect'
p638
aS'00979437e203d866b43af0268b7ff14a'
p639
aa(lp640
S'usr/pkg/bin/gettext.sh'
p641
aS'4cda9d7b6460fc0f8632293907133e78'
p642
aa(lp643
S'usr/pkg/bin/tar'
p644
aS'd0e6690994b6d0639eb7271d8b58f054'
p645
aa(lp646
S'usr/pkg/bin/pydoc2.6'
p647
aS'd901f6cb08acb269b93de00619b4dced'
p648
aa(lp649
S'usr/pkg/bin/shasum'
p650
aS'40ba70feddbd94999011d3d36fe7a92a'
p651
aa.