(lp0
(lp1
S'usr/local/atlas3.8.4/lib/libf77blas.a'
p2
aS'b9e1efc7eb000a01a0b625fe3a7fe7da'
p3
aa(lp4
S'usr/local/atlas3.8.4/lib/libcblas.a'
p5
aS'34613c04e630ef4f8786c2b149109cef'
p6
aa(lp7
S'usr/local/atlas3.8.4/lib/libf77blas.so'
p8
aS'bc57b90742488106fed4e3075ff62e3d'
p9
aa(lp10
S'usr/local/atlas3.8.4/lib/libatlas.a'
p11
aS'25bc54bcc48574c1c98e570e25bfef19'
p12
aa(lp13
S'usr/local/atlas3.8.4/lib/libatlas.so'
p14
aS'e9df493e7946e4196c91f9d1c4450c8d'
p15
aa(lp16
S'usr/local/atlas3.8.4/lib/liblapack.so'
p17
aS'90bbef6b47305f00368808a1677e2dbb'
p18
aa(lp19
S'usr/local/atlas3.8.4/lib/libptf77blas.a'
p20
aS'b1c1df255ecc6fefc06755131177b52f'
p21
aa(lp22
S'usr/local/atlas3.8.4/lib/libptcblas.a'
p23
aS'36b61ef78756b3a6f1384ea5e914459b'
p24
aa(lp25
S'usr/local/atlas3.8.4/lib/liblapack.a'
p26
aS'1af4605c65925cc019fd0c8f71d7af83'
p27
aa(lp28
S'usr/local/atlas3.8.4/lib/libcblas.so'
p29
aS'df1000bd28c0e09381e8c3ca8c29671c'
p30
aa(lp31
S'usr/local/atlas3.8.4/include/clapack.h'
p32
aS'd7f2d1e65cc95777f90fcc6a04b2ae48'
p33
aa(lp34
S'usr/local/atlas3.8.4/include/cblas.h'
p35
aS'84cb6fe5a4d2cd9f7afbd6033889fc88'
p36
aa(lp37
S'usr/local/atlas3.8.4/include/atlas/atlas_zmvN.h'
p38
aS'f6893b4bac444e76b79b7b5e4ee367f4'
p39
aa(lp40
S'usr/local/atlas3.8.4/include/atlas/atlas_dr1.h'
p41
aS'91590c0598b925bf5d4637cfcf8640b7'
p42
aa(lp43
S'usr/local/atlas3.8.4/include/atlas/atlas_csysinfo.h'
p44
aS'642aaaac215702118dea9d31bf98a16a'
p45
aa(lp46
S'usr/local/atlas3.8.4/include/atlas/cXover.h'
p47
aS'5934464f4b872dee4dee45d1bb589088'
p48
aa(lp49
S'usr/local/atlas3.8.4/include/atlas/atlas_smv.h'
p50
aS'f7cc2be3c2571ec1d330ee02395eeb3f'
p51
aa(lp52
S'usr/local/atlas3.8.4/include/atlas/smm.h'
p53
aS'090e8320aa5282b1cc895bf90d767de0'
p54
aa(lp55
S'usr/local/atlas3.8.4/include/atlas/atlas_ctrsmXover.h'
p56
aS'd41d8cd98f00b204e9800998ecf8427e'
p57
aa(lp58
S'usr/local/atlas3.8.4/include/atlas/atlas_dmvS.h'
p59
aS'65c3623da65b741bd9b06683c151a5a0'
p60
aa(lp61
S'usr/local/atlas3.8.4/include/atlas/atlas_smvS.h'
p62
aS'6947050018585126e0b85a36c1788a8a'
p63
aa(lp64
S'usr/local/atlas3.8.4/include/atlas/atlas_csNKB.h'
p65
aS'b809f3a1e7709138a1382382cf6de198'
p66
aa(lp67
S'usr/local/atlas3.8.4/include/atlas/atlas_zsysinfo.h'
p68
aS'19368cf74fcd2637901f64b6bdf274f8'
p69
aa(lp70
S'usr/local/atlas3.8.4/include/atlas/dXover.h'
p71
aS'309212768076a256ce70d74d8f3083a0'
p72
aa(lp73
S'usr/local/atlas3.8.4/include/atlas/atlas_zdNKB.h'
p74
aS'783af716d9ce5580e4577586343d9c0d'
p75
aa(lp76
S'usr/local/atlas3.8.4/include/atlas/atlas_ztrsmXover.h'
p77
aS'd41d8cd98f00b204e9800998ecf8427e'
p78
aa(lp79
S'usr/local/atlas3.8.4/include/atlas/atlas_cacheedge.h'
p80
aS'74f6d8d271c0b261563dbe05bfbdd8eb'
p81
aa(lp82
S'usr/local/atlas3.8.4/include/atlas/atlas_zmvT.h'
p83
aS'b52b2a37e7ca0f8d8411ce13d45d9aa9'
p84
aa(lp85
S'usr/local/atlas3.8.4/include/atlas/atlas_zmv.h'
p86
aS'459569f88fc64ae8fcb85df7adc2ced0'
p87
aa(lp88
S'usr/local/atlas3.8.4/include/atlas/atlas_zmvS.h'
p89
aS'd3ea12bcf64166781b728139a348b0d2'
p90
aa(lp91
S'usr/local/atlas3.8.4/include/atlas/atlas_sr1.h'
p92
aS'0db11aff790a05dcfa5afc6c9ef4c954'
p93
aa(lp94
S'usr/local/atlas3.8.4/include/atlas/sXover.h'
p95
aS'60413c39dede173bfeafe6ba9d88dd62'
p96
aa(lp97
S'usr/local/atlas3.8.4/include/atlas/atlas_type.h'
p98
aS'96b450222d1ca2eed715fc90ea6dcca0'
p99
aa(lp100
S'usr/local/atlas3.8.4/include/atlas/dmm.h'
p101
aS'5bf8e166ba4bb7d04925d8cc0fa2fab8'
p102
aa(lp103
S'usr/local/atlas3.8.4/include/atlas/cmm.h'
p104
aS'5985411db9c466d6afa378e881bfdbee'
p105
aa(lp106
S'usr/local/atlas3.8.4/include/atlas/atlas_cmvS.h'
p107
aS'61f326f37a5d6ec790090e0f88277b04'
p108
aa(lp109
S'usr/local/atlas3.8.4/include/atlas/atlas_dsysinfo.h'
p110
aS'a9797284757f32b4690d89372911f3a1'
p111
aa(lp112
S'usr/local/atlas3.8.4/include/atlas/atlas_cr1.h'
p113
aS'28f637093517ba988c8cfb6fffd1c504'
p114
aa(lp115
S'usr/local/atlas3.8.4/include/atlas/atlas_dtrsmXover.h'
p116
aS'ab8aa4ab5a0541fee65ac6b78a54743f'
p117
aa(lp118
S'usr/local/atlas3.8.4/include/atlas/atlas_sNCmm.h'
p119
aS'b73a547e488bd8953e6efb6a29056228'
p120
aa(lp121
S'usr/local/atlas3.8.4/include/atlas/atlas_cmvT.h'
p122
aS'8c603b1fc6bcb1cf2487b5cb9eba5f6e'
p123
aa(lp124
S'usr/local/atlas3.8.4/include/atlas/atlas_cNCmm.h'
p125
aS'e8aa2536536b942def84c4c0a3554ced'
p126
aa(lp127
S'usr/local/atlas3.8.4/include/atlas/atlas_smvN.h'
p128
aS'f6893b4bac444e76b79b7b5e4ee367f4'
p129
aa(lp130
S'usr/local/atlas3.8.4/include/atlas/atlas_zr1.h'
p131
aS'd8bc5799bf4860b6dd71187e7f353ca8'
p132
aa(lp133
S'usr/local/atlas3.8.4/include/atlas/atlas_ssysinfo.h'
p134
aS'67efda560270c81996602f8780b73f6b'
p135
aa(lp136
S'usr/local/atlas3.8.4/include/atlas/atlas_cmvN.h'
p137
aS'f6893b4bac444e76b79b7b5e4ee367f4'
p138
aa(lp139
S'usr/local/atlas3.8.4/include/atlas/atlas_zNCmm.h'
p140
aS'a6e1fcd04d07a8c36b7e3cb4bfc65bd7'
p141
aa(lp142
S'usr/local/atlas3.8.4/include/atlas/zmm.h'
p143
aS'71cf7d966a37d6b5ca85a73bde5d525d'
p144
aa(lp145
S'usr/local/atlas3.8.4/include/atlas/atlas_smvT.h'
p146
aS'971390fa4a05ed69d1d5a4c928edbd66'
p147
aa(lp148
S'usr/local/atlas3.8.4/include/atlas/atlas_buildinfo.h'
p149
aS'5474a0ab46f3cb5a0290740cf42b2246'
p150
aa(lp151
S'usr/local/atlas3.8.4/include/atlas/atlas_trsmNB.h'
p152
aS'7f559f9015424a91cd2b70b28a471c32'
p153
aa(lp154
S'usr/local/atlas3.8.4/include/atlas/atlas_dmvT.h'
p155
aS'5737b3dc7dab3a7b4846cc7de8818c7a'
p156
aa(lp157
S'usr/local/atlas3.8.4/include/atlas/atlas_cmv.h'
p158
aS'e8ad974aa42a254cbd39e23a45798625'
p159
aa(lp160
S'usr/local/atlas3.8.4/include/atlas/atlas_pthreads.h'
p161
aS'5abab9bb82283c29e0bb07ae9b56e3a0'
p162
aa(lp163
S'usr/local/atlas3.8.4/include/atlas/zXover.h'
p164
aS'73eaa8d6ffc8c14856aa4a7efe6984a5'
p165
aa(lp166
S'usr/local/atlas3.8.4/include/atlas/atlas_strsmXover.h'
p167
aS'320fe63eff2987d61b7b4948b263180c'
p168
aa(lp169
S'usr/local/atlas3.8.4/include/atlas/atlas_dmv.h'
p170
aS'dd3fd54d4b8cc26f7eb5e23c85aca43c'
p171
aa(lp172
S'usr/local/atlas3.8.4/include/atlas/atlas_dNCmm.h'
p173
aS'aa1a3d99e5424a0aa2f6451557c8941c'
p174
aa(lp175
S'usr/local/atlas3.8.4/include/atlas/atlas_dmvN.h'
p176
aS'f6893b4bac444e76b79b7b5e4ee367f4'
p177
aa(lp178
S'usr/local/lib/libCOS4.so'
p179
aS'993ace9d9393f0f9d41a8b8bccd4f546'
p180
aa(lp181
S'usr/local/lib/libCOSDynamic4.so.1.3'
p182
aS'8e54451b5e1e2affecf34affad465935'
p183
aa(lp184
S'usr/local/lib/libomnithread.a'
p185
aS'c5734e941d0041cd920cdc2d5ad4d100'
p186
aa(lp187
S'usr/local/lib/libCOS4.so.1'
p188
aS'993ace9d9393f0f9d41a8b8bccd4f546'
p189
aa(lp190
S'usr/local/lib/libf77blas.so'
p191
aS'bc57b90742488106fed4e3075ff62e3d'
p192
aa(lp193
S'usr/local/lib/libomniCodeSets4.so'
p194
aS'def6a80427c92a7a3b8881d74151bf73'
p195
aa(lp196
S'usr/local/lib/libCOSDynamic4.so.1'
p197
aS'8e54451b5e1e2affecf34affad465935'
p198
aa(lp199
S'usr/local/lib/libomniDynamic4.a'
p200
aS'23fa34c88ce9ef48c20f062defc2ef4a'
p201
aa(lp202
S'usr/local/lib/libomnithread.so.3.4'
p203
aS'78af39ec6285edc8e0ecdb1b7f876bdf'
p204
aa(lp205
S'usr/local/lib/libatlas.so'
p206
aS'e9df493e7946e4196c91f9d1c4450c8d'
p207
aa(lp208
S'usr/local/lib/liblapack.so'
p209
aS'90bbef6b47305f00368808a1677e2dbb'
p210
aa(lp211
S'usr/local/lib/libomniCodeSets4.so.1'
p212
aS'def6a80427c92a7a3b8881d74151bf73'
p213
aa(lp214
S'usr/local/lib/libomniORB4.so.1'
p215
aS'5040d4baa705f132536e04be5484b203'
p216
aa(lp217
S'usr/local/lib/libomniCodeSets4.a'
p218
aS'15f873ee1874327c8c53b0d83bca1af7'
p219
aa(lp220
S'usr/local/lib/libCOSDynamic4.a'
p221
aS'aef3fb321b6430a22a5739f435331775'
p222
aa(lp223
S'usr/local/lib/libomniConnectionMgmt4.a'
p224
aS'33dcd215c4b1a4f2af36f0ff18340a44'
p225
aa(lp226
S'usr/local/lib/libomniORB4.a'
p227
aS'33df7b3862bf81a94c58ca6da880757b'
p228
aa(lp229
S'usr/local/lib/libCOS4.so.1.3'
p230
aS'993ace9d9393f0f9d41a8b8bccd4f546'
p231
aa(lp232
S'usr/local/lib/libomniConnectionMgmt4.so'
p233
aS'b53ddb0d04e995e346ab43b4ab9f6214'
p234
aa(lp235
S'usr/local/lib/libomnithread.so'
p236
aS'78af39ec6285edc8e0ecdb1b7f876bdf'
p237
aa(lp238
S'usr/local/lib/libCOSDynamic4.so'
p239
aS'8e54451b5e1e2affecf34affad465935'
p240
aa(lp241
S'usr/local/lib/libomniCodeSets4.so.1.3'
p242
aS'def6a80427c92a7a3b8881d74151bf73'
p243
aa(lp244
S'usr/local/lib/libomniORB4.so.1.3'
p245
aS'5040d4baa705f132536e04be5484b203'
p246
aa(lp247
S'usr/local/lib/libomniConnectionMgmt4.so.1'
p248
aS'b53ddb0d04e995e346ab43b4ab9f6214'
p249
aa(lp250
S'usr/local/lib/libomnithread.so.3'
p251
aS'78af39ec6285edc8e0ecdb1b7f876bdf'
p252
aa(lp253
S'usr/local/lib/libblas.so'
p254
aS'bc57b90742488106fed4e3075ff62e3d'
p255
aa(lp256
S'usr/local/lib/libCOS4.a'
p257
aS'4ce01e5252ac1784ad08760c4f695ef3'
p258
aa(lp259
S'usr/local/lib/libomniDynamic4.so.1'
p260
aS'f105dcb391c36caead6f5795ba6f7e6b'
p261
aa(lp262
S'usr/local/lib/libomniDynamic4.so.1.3'
p263
aS'f105dcb391c36caead6f5795ba6f7e6b'
p264
aa(lp265
S'usr/local/lib/libcblas.so'
p266
aS'df1000bd28c0e09381e8c3ca8c29671c'
p267
aa(lp268
S'usr/local/lib/libomniDynamic4.so'
p269
aS'f105dcb391c36caead6f5795ba6f7e6b'
p270
aa(lp271
S'usr/local/lib/libomniORB4.so'
p272
aS'5040d4baa705f132536e04be5484b203'
p273
aa(lp274
S'usr/local/lib/libomniConnectionMgmt4.so.1.3'
p275
aS'b53ddb0d04e995e346ab43b4ab9f6214'
p276
aa(lp277
S'usr/local/lib/python2.5/site-packages/_omniidlmodule.so'
p278
aS'50ee1c2d7fe22b6f40d2276e792abf66'
p279
aa(lp280
S'usr/local/lib/python2.5/site-packages/_omniidlmodule.so.4'
p281
aS'50ee1c2d7fe22b6f40d2276e792abf66'
p282
aa(lp283
S'usr/local/lib/python2.5/site-packages/_omniidlmodule.so.4.1'
p284
aS'50ee1c2d7fe22b6f40d2276e792abf66'
p285
aa(lp286
S'usr/local/lib/python2.5/site-packages/omniidl_be/interactive.py'
p287
aS'79299cc9843927943fcb4c7ad3980024'
p288
aa(lp289
S'usr/local/lib/python2.5/site-packages/omniidl_be/dump.py'
p290
aS'94298355a98217043c952c659414a800'
p291
aa(lp292
S'usr/local/lib/python2.5/site-packages/omniidl_be/interactive.pyc'
p293
aS'a8f88b7d8c8587e5824e1062aeda4d74'
p294
aa(lp295
S'usr/local/lib/python2.5/site-packages/omniidl_be/example.py'
p296
aS'65016e81e1da653501e29740bb2d17fb'
p297
aa(lp298
S'usr/local/lib/python2.5/site-packages/omniidl_be/__init__.py'
p299
aS'a298c4e358062a7547263757fd2c9b07'
p300
aa(lp301
S'usr/local/lib/python2.5/site-packages/omniidl_be/dump.pyc'
p302
aS'8ddc95231c05b35fb7e52c87e065e6a8'
p303
aa(lp304
S'usr/local/lib/python2.5/site-packages/omniidl_be/__init__.pyc'
p305
aS'eca4e17f8fe5b8d6dc4ccf48f56d25cc'
p306
aa(lp307
S'usr/local/lib/python2.5/site-packages/omniidl_be/example.pyc'
p308
aS'33ede53fb1fbf7c13fda53e28ab5f287'
p309
aa(lp310
S'usr/local/lib/python2.5/site-packages/omniidl_be/cxx/skutil.py'
p311
aS'd882f1aa28b9e2d76035074c0fe48522'
p312
aa(lp313
S'usr/local/lib/python2.5/site-packages/omniidl_be/cxx/cxx.pyc'
p314
aS'b22fed68285f84d452c9bc4ac2d7cb9c'
p315
aa(lp316
S'usr/local/lib/python2.5/site-packages/omniidl_be/cxx/output.py'
p317
aS'688c77576a73a7466ea5675603c9762b'
p318
aa(lp319
S'usr/local/lib/python2.5/site-packages/omniidl_be/cxx/id.pyc'
p320
aS'5018fadd8795b0cb5b9359e95a3a2770'
p321
aa(lp322
S'usr/local/lib/python2.5/site-packages/omniidl_be/cxx/support.py'
p323
aS'38430bb2140e6d3d860f7efba4eb42ee'
p324
aa(lp325
S'usr/local/lib/python2.5/site-packages/omniidl_be/cxx/skutil.pyc'
p326
aS'5fcb64d406ed23b1804e30a6e3806a86'
p327
aa(lp328
S'usr/local/lib/python2.5/site-packages/omniidl_be/cxx/ast.pyc'
p329
aS'63e1404b902100b4f5b9c94afbf11af1'
p330
aa(lp331
S'usr/local/lib/python2.5/site-packages/omniidl_be/cxx/types.py'
p332
aS'5e4d39ef0b20a1059f9a2c9dcb24a080'
p333
aa(lp334
S'usr/local/lib/python2.5/site-packages/omniidl_be/cxx/support.pyc'
p335
aS'b71da060c94a9ff256b7d8c607bc5714'
p336
aa(lp337
S'usr/local/lib/python2.5/site-packages/omniidl_be/cxx/call.py'
p338
aS'75632fff7b75dcdb3ae0c5eb8ebaabee'
p339
aa(lp340
S'usr/local/lib/python2.5/site-packages/omniidl_be/cxx/id.py'
p341
aS'cc1bcf2c43e080da347366ac449d5349'
p342
aa(lp343
S'usr/local/lib/python2.5/site-packages/omniidl_be/cxx/ast.py'
p344
aS'218b17b8d6911ba0aa0a9099b0abfa36'
p345
aa(lp346
S'usr/local/lib/python2.5/site-packages/omniidl_be/cxx/iface.py'
p347
aS'ca09b3928488a7ada005a4aabcc01695'
p348
aa(lp349
S'usr/local/lib/python2.5/site-packages/omniidl_be/cxx/value.py'
p350
aS'3202c95753b5f80c98e89d80a8c5b3e6'
p351
aa(lp352
S'usr/local/lib/python2.5/site-packages/omniidl_be/cxx/output.pyc'
p353
aS'f0253137d4bd07567656472c2cec0810'
p354
aa(lp355
S'usr/local/lib/python2.5/site-packages/omniidl_be/cxx/mapping.py'
p356
aS'b31165954de6935455db3be013894192'
p357
aa(lp358
S'usr/local/lib/python2.5/site-packages/omniidl_be/cxx/descriptor.py'
p359
aS'c559662b22db536b734a2d3873bdb353'
p360
aa(lp361
S'usr/local/lib/python2.5/site-packages/omniidl_be/cxx/__init__.py'
p362
aS'1f30f42f9c30014d54998c2d611ffe2c'
p363
aa(lp364
S'usr/local/lib/python2.5/site-packages/omniidl_be/cxx/descriptor.pyc'
p365
aS'ea63a3a8ab0c1784329f4f9903c2888b'
p366
aa(lp367
S'usr/local/lib/python2.5/site-packages/omniidl_be/cxx/iface.pyc'
p368
aS'f601ab410844740b209147433a4bfd4d'
p369
aa(lp370
S'usr/local/lib/python2.5/site-packages/omniidl_be/cxx/call.pyc'
p371
aS'fc6df58ae4768904e26fd88802db52ea'
p372
aa(lp373
S'usr/local/lib/python2.5/site-packages/omniidl_be/cxx/value.pyc'
p374
aS'e1deeca88a1eb932e0f05f81f12756c6'
p375
aa(lp376
S'usr/local/lib/python2.5/site-packages/omniidl_be/cxx/__init__.pyc'
p377
aS'c5b190ffa3e0bcbc5c58495c61ee5d12'
p378
aa(lp379
S'usr/local/lib/python2.5/site-packages/omniidl_be/cxx/util.pyc'
p380
aS'050caa9b28f669a09982476ea283d93b'
p381
aa(lp382
S'usr/local/lib/python2.5/site-packages/omniidl_be/cxx/util.py'
p383
aS'4b962709ac0240cf8e7b29a6f673fb21'
p384
aa(lp385
S'usr/local/lib/python2.5/site-packages/omniidl_be/cxx/config.pyc'
p386
aS'b4801c040b7fb760780b983f363f96c7'
p387
aa(lp388
S'usr/local/lib/python2.5/site-packages/omniidl_be/cxx/cxx.py'
p389
aS'0806b821ed674988125ac508178d6b8b'
p390
aa(lp391
S'usr/local/lib/python2.5/site-packages/omniidl_be/cxx/mapping.pyc'
p392
aS'7a246be20615c52b50fdd5cd7151674f'
p393
aa(lp394
S'usr/local/lib/python2.5/site-packages/omniidl_be/cxx/types.pyc'
p395
aS'070d6f5e29edc8c205b6fc6c8d3cbcb5'
p396
aa(lp397
S'usr/local/lib/python2.5/site-packages/omniidl_be/cxx/config.py'
p398
aS'c017cdcc17b1c2b7bee075c3b4ecad66'
p399
aa(lp400
S'usr/local/lib/python2.5/site-packages/omniidl_be/cxx/skel/template.py'
p401
aS'3013ee9f4fff1dd07fddd9e79973310b'
p402
aa(lp403
S'usr/local/lib/python2.5/site-packages/omniidl_be/cxx/skel/main.pyc'
p404
aS'b6b94374ed3a5e276ba62017bafb29ac'
p405
aa(lp406
S'usr/local/lib/python2.5/site-packages/omniidl_be/cxx/skel/template.pyc'
p407
aS'975d4f8571c3d06efaff53a240fb478f'
p408
aa(lp409
S'usr/local/lib/python2.5/site-packages/omniidl_be/cxx/skel/main.py'
p410
aS'b79c1c0f7493a72d75422415d28030ad'
p411
aa(lp412
S'usr/local/lib/python2.5/site-packages/omniidl_be/cxx/skel/mangler.py'
p413
aS'067a14717c2c8067790fdc49096735b1'
p414
aa(lp415
S'usr/local/lib/python2.5/site-packages/omniidl_be/cxx/skel/poa.py'
p416
aS'2e78d1a36cf2fb3e5192725f45c5db63'
p417
aa(lp418
S'usr/local/lib/python2.5/site-packages/omniidl_be/cxx/skel/__init__.py'
p419
aS'a290150e9555bdcd1ab51f76bfa4a346'
p420
aa(lp421
S'usr/local/lib/python2.5/site-packages/omniidl_be/cxx/skel/poa.pyc'
p422
aS'75b0d55a2b6287575d66fea99b77cdc6'
p423
aa(lp424
S'usr/local/lib/python2.5/site-packages/omniidl_be/cxx/skel/__init__.pyc'
p425
aS'b90d1ee838dae64ec7ca36e723459609'
p426
aa(lp427
S'usr/local/lib/python2.5/site-packages/omniidl_be/cxx/skel/mangler.pyc'
p428
aS'748ec66911afae57dd3d60b65c8794a3'
p429
aa(lp430
S'usr/local/lib/python2.5/site-packages/omniidl_be/cxx/impl/template.py'
p431
aS'c2c4804b360f4455316e659966591f5a'
p432
aa(lp433
S'usr/local/lib/python2.5/site-packages/omniidl_be/cxx/impl/main.pyc'
p434
aS'b2e42e748ad047ea55493ce5802a1408'
p435
aa(lp436
S'usr/local/lib/python2.5/site-packages/omniidl_be/cxx/impl/template.pyc'
p437
aS'9ca1206b0909a1ccd9f59c8da8d77c23'
p438
aa(lp439
S'usr/local/lib/python2.5/site-packages/omniidl_be/cxx/impl/main.py'
p440
aS'406401a2da35749c4c548bbbee1888f0'
p441
aa(lp442
S'usr/local/lib/python2.5/site-packages/omniidl_be/cxx/impl/__init__.py'
p443
aS'c70fa326ab489f7c98883ce65e1b5f25'
p444
aa(lp445
S'usr/local/lib/python2.5/site-packages/omniidl_be/cxx/impl/__init__.pyc'
p446
aS'dcc0d407c6d3cfdcbda39a9788482646'
p447
aa(lp448
S'usr/local/lib/python2.5/site-packages/omniidl_be/cxx/header/template.py'
p449
aS'59468063a080f691d880ac79e6f77d0d'
p450
aa(lp451
S'usr/local/lib/python2.5/site-packages/omniidl_be/cxx/header/marshal.py'
p452
aS'8bd21e404233ed6e927554743c670e09'
p453
aa(lp454
S'usr/local/lib/python2.5/site-packages/omniidl_be/cxx/header/obv.py'
p455
aS'7737c49a4c12e7e9b1020ab772e1739a'
p456
aa(lp457
S'usr/local/lib/python2.5/site-packages/omniidl_be/cxx/header/defs.pyc'
p458
aS'3f3c34ffb1dd17c3d1aaaf80b3878110'
p459
aa(lp460
S'usr/local/lib/python2.5/site-packages/omniidl_be/cxx/header/template.pyc'
p461
aS'e2aee74e715a3304c729ea11be412b1a'
p462
aa(lp463
S'usr/local/lib/python2.5/site-packages/omniidl_be/cxx/header/tie.py'
p464
aS'a96f8cb5f3d25479aecfa84851ddad97'
p465
aa(lp466
S'usr/local/lib/python2.5/site-packages/omniidl_be/cxx/header/poa.py'
p467
aS'f20f25dbcc7959bd4b2770999ce2d4aa'
p468
aa(lp469
S'usr/local/lib/python2.5/site-packages/omniidl_be/cxx/header/obv.pyc'
p470
aS'6b30642e40669c79e4dc235288fbb5ef'
p471
aa(lp472
S'usr/local/lib/python2.5/site-packages/omniidl_be/cxx/header/defs.py'
p473
aS'121d265db78a0f59cb68d0b4be19967c'
p474
aa(lp475
S'usr/local/lib/python2.5/site-packages/omniidl_be/cxx/header/__init__.py'
p476
aS'72f17da83d2993b2f4dad55778b593f8'
p477
aa(lp478
S'usr/local/lib/python2.5/site-packages/omniidl_be/cxx/header/tcstring.pyc'
p479
aS'd0d39ef6315f3d73cab63e3cc6ba50b4'
p480
aa(lp481
S'usr/local/lib/python2.5/site-packages/omniidl_be/cxx/header/opers.py'
p482
aS'70c9b2413e68a02f00d42a209ad46353'
p483
aa(lp484
S'usr/local/lib/python2.5/site-packages/omniidl_be/cxx/header/opers.pyc'
p485
aS'0684842da0b85586994b494332f4567d'
p486
aa(lp487
S'usr/local/lib/python2.5/site-packages/omniidl_be/cxx/header/poa.pyc'
p488
aS'93e31819655d1369fbae94cc0a3a41e3'
p489
aa(lp490
S'usr/local/lib/python2.5/site-packages/omniidl_be/cxx/header/__init__.pyc'
p491
aS'05f56271a091d84c01ae558be2da8ac9'
p492
aa(lp493
S'usr/local/lib/python2.5/site-packages/omniidl_be/cxx/header/marshal.pyc'
p494
aS'd41ae2702b4d0015b922316e6b397213'
p495
aa(lp496
S'usr/local/lib/python2.5/site-packages/omniidl_be/cxx/header/tie.pyc'
p497
aS'974d53cbd1dcd3a0c96a28a12b6fef01'
p498
aa(lp499
S'usr/local/lib/python2.5/site-packages/omniidl_be/cxx/header/tcstring.py'
p500
aS'f3192df31dd074b5f115451564fe9ad6'
p501
aa(lp502
S'usr/local/lib/python2.5/site-packages/omniidl_be/cxx/header/forward.py'
p503
aS'f94315ac643349e3be025af182a098ba'
p504
aa(lp505
S'usr/local/lib/python2.5/site-packages/omniidl_be/cxx/header/forward.pyc'
p506
aS'05bec491de05dbcee9895fdaedb4cf6e'
p507
aa(lp508
S'usr/local/lib/python2.5/site-packages/omniidl_be/cxx/dynskel/template.py'
p509
aS'c6b05b4fcbc41e175198c682c9efc691'
p510
aa(lp511
S'usr/local/lib/python2.5/site-packages/omniidl_be/cxx/dynskel/main.pyc'
p512
aS'2c32cc3401a63b90be32319dc0bee5c2'
p513
aa(lp514
S'usr/local/lib/python2.5/site-packages/omniidl_be/cxx/dynskel/template.pyc'
p515
aS'774b3771f52668acfc27f2098aa736b7'
p516
aa(lp517
S'usr/local/lib/python2.5/site-packages/omniidl_be/cxx/dynskel/typecode.py'
p518
aS'6396f256e7b6f41e3d40df6b4d4c73c6'
p519
aa(lp520
S'usr/local/lib/python2.5/site-packages/omniidl_be/cxx/dynskel/typecode.pyc'
p521
aS'38ee5709e8cff511b5347303fd31dfd8'
p522
aa(lp523
S'usr/local/lib/python2.5/site-packages/omniidl_be/cxx/dynskel/main.py'
p524
aS'83324fb7534a8565bf8b8bc693c1d2ab'
p525
aa(lp526
S'usr/local/lib/python2.5/site-packages/omniidl_be/cxx/dynskel/__init__.py'
p527
aS'61134a393009593067bf9649ec95b83f'
p528
aa(lp529
S'usr/local/lib/python2.5/site-packages/omniidl_be/cxx/dynskel/tcstring.pyc'
p530
aS'a87781819d03a17c0e5a0983130a3cc6'
p531
aa(lp532
S'usr/local/lib/python2.5/site-packages/omniidl_be/cxx/dynskel/__init__.pyc'
p533
aS'77ae9028acf256e60b79d64d0c7ebda4'
p534
aa(lp535
S'usr/local/lib/python2.5/site-packages/omniidl_be/cxx/dynskel/tcstring.py'
p536
aS'7e9aa550fefe14bc7d93e03599175cb4'
p537
aa(lp538
S'usr/local/lib/python2.5/site-packages/omniidl/idlast.py'
p539
aS'7a84eca3a241b54a61022dd302596288'
p540
aa(lp541
S'usr/local/lib/python2.5/site-packages/omniidl/output.py'
p542
aS'5707677e58e25f4b252069f2b32a1519'
p543
aa(lp544
S'usr/local/lib/python2.5/site-packages/omniidl/idlutil.pyc'
p545
aS'34eaba7ed0e857d454a1c9d35f3e718f'
p546
aa(lp547
S'usr/local/lib/python2.5/site-packages/omniidl/main.pyc'
p548
aS'65264018f9d3fb746efccdefc9944ef9'
p549
aa(lp550
S'usr/local/lib/python2.5/site-packages/omniidl/idlvisitor.pyc'
p551
aS'3b094fe55ad2dc5297856fb87badec95'
p552
aa(lp553
S'usr/local/lib/python2.5/site-packages/omniidl/main.py'
p554
aS'34ad8ad4c7f8f73f81ee083cafd517dc'
p555
aa(lp556
S'usr/local/lib/python2.5/site-packages/omniidl/idlast.pyc'
p557
aS'3446d777f4c6ab7a593d7b782f273fd8'
p558
aa(lp559
S'usr/local/lib/python2.5/site-packages/omniidl/output.pyc'
p560
aS'd5d19fd185bd85f0e1aac265315b6a5c'
p561
aa(lp562
S'usr/local/lib/python2.5/site-packages/omniidl/idltype.py'
p563
aS'27c6df54c4e95024e0e6586829b410e9'
p564
aa(lp565
S'usr/local/lib/python2.5/site-packages/omniidl/__init__.py'
p566
aS'a298c4e358062a7547263757fd2c9b07'
p567
aa(lp568
S'usr/local/lib/python2.5/site-packages/omniidl/idltype.pyc'
p569
aS'84a0a63b92240101d576283c8d98fc3a'
p570
aa(lp571
S'usr/local/lib/python2.5/site-packages/omniidl/__init__.pyc'
p572
aS'4bb655c61109476fce56ee9b75ea3fc3'
p573
aa(lp574
S'usr/local/lib/python2.5/site-packages/omniidl/idlutil.py'
p575
aS'7ae7cf3059cdf4e05ab72cf2d7b182b1'
p576
aa(lp577
S'usr/local/lib/python2.5/site-packages/omniidl/idlvisitor.py'
p578
aS'8304c07b78dc88e71c6ac1cdbc35f599'
p579
aa(lp580
S'usr/local/lib/pkgconfig/omniConnectionMgmt4.pc'
p581
aS'624aedce6dc55ec0c1c5476ec9668406'
p582
aa(lp583
S'usr/local/lib/pkgconfig/omnithread3.pc'
p584
aS'ab6c8b707271c4e561853e86dfb3acfd'
p585
aa(lp586
S'usr/local/lib/pkgconfig/omniCOSDynamic4.pc'
p587
aS'86ffe5c78766aad47d4739e15767d060'
p588
aa(lp589
S'usr/local/lib/pkgconfig/omniDynamic4.pc'
p590
aS'96513d1ffdb0351e18448be8214e7048'
p591
aa(lp592
S'usr/local/lib/pkgconfig/omniORB4.pc'
p593
aS'0ac870daa66901ee3b0a08a61b1d2097'
p594
aa(lp595
S'usr/local/lib/pkgconfig/omniCOS4.pc'
p596
aS'08d1b23de39e86f21688f80517587fd9'
p597
aa(lp598
S'usr/local/bin/pci7020bios020X1141fix'
p599
aS'7f5bf967fdf80f9dbb4c447e0da6fc15'
p600
aa(lp601
S'usr/local/bin/nameclt'
p602
aS'6b06a76854f6f24e956c75cd6082ad42'
p603
aa(lp604
S'usr/local/bin/tvmet-config'
p605
aS'63a58a068a4a160af010ee702ab9cfb3'
p606
aa(lp607
S'usr/local/bin/convertior'
p608
aS'9110d484f02a2272a6c5109a8e1bdf9c'
p609
aa(lp610
S'usr/local/bin/catior'
p611
aS'fd017676fd8f03b1039b7cd1737618ae'
p612
aa(lp613
S'usr/local/bin/omnicpp'
p614
aS'21b658e021a457f31702d0e25e9de59c'
p615
aa(lp616
S'usr/local/bin/omkdepend'
p617
aS'5f86f9505b11912e3bb5689dd87e0272'
p618
aa(lp619
S'usr/local/bin/genior'
p620
aS'bdcf8e4ff8a8b41c7211c81cd583eba2'
p621
aa(lp622
S'usr/local/bin/omniMapper'
p623
aS'5025ce8de06554f7b0518d85fbb7f747'
p624
aa(lp625
S'usr/local/bin/omniidlrun.py'
p626
aS'ed131f7c8344abce6990a1da1082ac11'
p627
aa(lp628
S'usr/local/bin/omniidl'
p629
aS'903d73c375da3bcc0b7183e1dbd36ff4'
p630
aa(lp631
S'usr/local/bin/shutdownx'
p632
aS'2522c25112b97e90c3ad1d61c64a8aab'
p633
aa(lp634
S'usr/local/bin/omniNames'
p635
aS'de216e769fe9febc330bd32880177974'
p636
aa(lp637
S'usr/local/bin/omniNames_nxo'
p638
aS'de216e769fe9febc330bd32880177974'
p639
aa(lp640
S'usr/local/bin/shutdown.sh'
p641
aS'a747e64e8207f95c759e597f5af723d8'
p642
aa(lp643
S'usr/local/include/omnithread.h'
p644
aS'71b600a6bea383e2332b6f1ea39e2c06'
p645
aa(lp646
S'usr/local/include/omniconfig.h'
p647
aS'45f385e7d48453099268bc8d50895fd2'
p648
aa(lp649
S'usr/local/include/omnithread/solaris.h'
p650
aS'b57cee01af8ba2f0515051e6d0cd6b5c'
p651
aa(lp652
S'usr/local/include/omnithread/pthread_nt.h'
p653
aS'5c6bd8960d54767144bc45483f63fe86'
p654
aa(lp655
S'usr/local/include/omnithread/posix.h'
p656
aS'bccff699168b2a7a8fd7f3b99d1e3843'
p657
aa(lp658
S'usr/local/include/omnithread/nt.h'
p659
aS'b70ba4ddd54a7b13a8bfa348099547ea'
p660
aa(lp661
S'usr/local/include/omnithread/mach.h'
p662
aS'cad76bf0533f4ad8461ac78fbfef358d'
p663
aa(lp664
S'usr/local/include/tvmet/CompileTimeError.h'
p665
aS'42c3f2bd02da9c14ca6d3e179bcdad1c'
p666
aa(lp667
S'usr/local/include/tvmet/MatrixEval.h'
p668
aS'd91a7d11781046282e4f72da3fd51c8c'
p669
aa(lp670
S'usr/local/include/tvmet/TypePromotion.h'
p671
aS'aad5f64594d354896171fb657dc0726d'
p672
aa(lp673
S'usr/local/include/tvmet/Matrix.h'
p674
aS'5a2816881196ab691c97c4018844fe3e'
p675
aa(lp676
S'usr/local/include/tvmet/MatrixImpl.h'
p677
aS'cdedc87758664c6b9069af6741ad2c7c'
p678
aa(lp679
S'usr/local/include/tvmet/NumericTraits.h'
p680
aS'433f596d0ab6cfffd439e05aa379943b'
p681
aa(lp682
S'usr/local/include/tvmet/VectorImpl.h'
p683
aS'6d877f38980807cf96ef63983acb831e'
p684
aa(lp685
S'usr/local/include/tvmet/RunTimeError.h'
p686
aS'9adbff45da91729a6edb8e29fa72d1c6'
p687
aa(lp688
S'usr/local/include/tvmet/MatrixBinaryFunctions.h'
p689
aS'48a1eec29e6866f5e43f91d1487d3879'
p690
aa(lp691
S'usr/local/include/tvmet/VectorFunctions.h'
p692
aS'0d3161bbdc92ccd6a999bafac36bcfff'
p693
aa(lp694
S'usr/local/include/tvmet/CommaInitializer.h'
p695
aS'3acf4d44b7978e160b214dc3543562e9'
p696
aa(lp697
S'usr/local/include/tvmet/UnaryFunctionals.h'
p698
aS'6aa610ed21b389b36f200c091663c185'
p699
aa(lp700
S'usr/local/include/tvmet/VectorUnaryFunctions.h'
p701
aS'7a554aa21ec6dbf23b5813aff38de82d'
p702
aa(lp703
S'usr/local/include/tvmet/Vector.h'
p704
aS'28638b739a7e6954200392b81fe9792e'
p705
aa(lp706
S'usr/local/include/tvmet/MatrixFunctions.h'
p707
aS'222c711a1e90933d9edc12d2d7f60723'
p708
aa(lp709
S'usr/local/include/tvmet/Functional.h'
p710
aS'94ba5c54539551178a4dda81a33c170f'
p711
aa(lp712
S'usr/local/include/tvmet/VectorBinaryFunctions.h'
p713
aS'f648221c6f30d1cd4467e8fbd53cd9f4'
p714
aa(lp715
S'usr/local/include/tvmet/AliasProxy.h'
p716
aS'c0f56f30eddc74dcdf7dc3e88a7dd163'
p717
aa(lp718
S'usr/local/include/tvmet/VectorEval.h'
p719
aS'ef3e8e229bb2f7d47e1a54ca490e345e'
p720
aa(lp721
S'usr/local/include/tvmet/Extremum.h'
p722
aS'ef33d8a651f1d148336791269c6a4f94'
p723
aa(lp724
S'usr/local/include/tvmet/tvmet.h'
p725
aS'9d6399845538f524813247a9339ef2f2'
p726
aa(lp727
S'usr/local/include/tvmet/config.h'
p728
aS'556c7139bfa09442988fb5a6f74008c4'
p729
aa(lp730
S'usr/local/include/tvmet/MatrixUnaryFunctions.h'
p731
aS'79ff487e88f545d784ab3fe913d484bd'
p732
aa(lp733
S'usr/local/include/tvmet/Io.h'
p734
aS'8c3aa065debc1d4b79157b3cb4290bcf'
p735
aa(lp736
S'usr/local/include/tvmet/TvmetBase.h'
p737
aS'4874567afeae8d9f8ba60740611673b4'
p738
aa(lp739
S'usr/local/include/tvmet/VectorOperators.h'
p740
aS'e457733e0eddd93a299ef7de182913d1'
p741
aa(lp742
S'usr/local/include/tvmet/MatrixOperators.h'
p743
aS'43a9813668889969d77b9902368684a4'
p744
aa(lp745
S'usr/local/include/tvmet/BinaryFunctionals.h'
p746
aS'8187b4e288ef5c6438bc392e0e9000d5'
p747
aa(lp748
S'usr/local/include/tvmet/util/General.h'
p749
aS'd36c84b5f02ce738876df47f5c4c13c4'
p750
aa(lp751
S'usr/local/include/tvmet/util/Random.h'
p752
aS'5687ac98e4e9610bc0ebc26c133f3c8a'
p753
aa(lp754
S'usr/local/include/tvmet/util/Incrementor.h'
p755
aS'cb6e71a68d82a880abeacb5aceedf8d7'
p756
aa(lp757
S'usr/local/include/tvmet/util/Timer.h'
p758
aS'10c16847a31ba5d9ec1bc96d9f19762e'
p759
aa(lp760
S'usr/local/include/tvmet/xpr/MatrixDiag.h'
p761
aS'cf05c1b4346934efa516a9ce8f5d2631'
p762
aa(lp763
S'usr/local/include/tvmet/xpr/Matrix.h'
p764
aS'40b1e882bd852c437fb734a92dfd4bf1'
p765
aa(lp766
S'usr/local/include/tvmet/xpr/MtMProduct.h'
p767
aS'485a30d9d30185edc11bd9264afc8580'
p768
aa(lp769
S'usr/local/include/tvmet/xpr/MMtProduct.h'
p770
aS'fc7ad3d274a2eae25e1cb85c6c89c508'
p771
aa(lp772
S'usr/local/include/tvmet/xpr/MatrixBinaryFunctions.h'
p773
aS'8b27dd305dbf922c2006be455e3082b0'
p774
aa(lp775
S'usr/local/include/tvmet/xpr/BinOperator.h'
p776
aS'0608c371b3c14eec4dff9927eb8106b6'
p777
aa(lp778
S'usr/local/include/tvmet/xpr/VectorFunctions.h'
p779
aS'291a38b2a657391d5b39b93749ed7447'
p780
aa(lp781
S'usr/local/include/tvmet/xpr/MMProduct.h'
p782
aS'f6bd6446ff94840afd64c24202837d7e'
p783
aa(lp784
S'usr/local/include/tvmet/xpr/MatrixTranspose.h'
p785
aS'3716e9bee8ac6c126cd45f5112eadefa'
p786
aa(lp787
S'usr/local/include/tvmet/xpr/VectorUnaryFunctions.h'
p788
aS'dfdb07444a2684a61bb119c22c08a003'
p789
aa(lp790
S'usr/local/include/tvmet/xpr/Vector.h'
p791
aS'4dadeb7c5e460aa781dae5a5de17e408'
p792
aa(lp793
S'usr/local/include/tvmet/xpr/MatrixFunctions.h'
p794
aS'3aa0452a524d1364535132c6dd22fed5'
p795
aa(lp796
S'usr/local/include/tvmet/xpr/MVProduct.h'
p797
aS'5b1b92777dab765c7e29715f1caf3936'
p798
aa(lp799
S'usr/local/include/tvmet/xpr/VectorBinaryFunctions.h'
p800
aS'46f76f25b6750372c7c9109b5e6b0088'
p801
aa(lp802
S'usr/local/include/tvmet/xpr/Eval.h'
p803
aS'8ceca0c6e8d5fd0567d20ad516ec8186'
p804
aa(lp805
S'usr/local/include/tvmet/xpr/MtVProduct.h'
p806
aS'5c05d4bb6b9bbcaead45cec247a21db7'
p807
aa(lp808
S'usr/local/include/tvmet/xpr/UnOperator.h'
p809
aS'56c6588de0063662b4ad74fd58650e2b'
p810
aa(lp811
S'usr/local/include/tvmet/xpr/MatrixRow.h'
p812
aS'8559ccacd82ac853a6d71d3dddb28bcf'
p813
aa(lp814
S'usr/local/include/tvmet/xpr/Literal.h'
p815
aS'a0a2f3321d76d4cf957b703bcfa487ef'
p816
aa(lp817
S'usr/local/include/tvmet/xpr/MatrixCol.h'
p818
aS'efce2fe2c7a6b44cfcef06e9ffd1c669'
p819
aa(lp820
S'usr/local/include/tvmet/xpr/Null.h'
p821
aS'3cb70565d9f0c05b5cc57ab1b9995457'
p822
aa(lp823
S'usr/local/include/tvmet/xpr/MMProductTransposed.h'
p824
aS'055da97075d21e60e7b4c901d25aa9b6'
p825
aa(lp826
S'usr/local/include/tvmet/xpr/MatrixUnaryFunctions.h'
p827
aS'ab23a7cb196afad8c2a59a67f1e84168'
p828
aa(lp829
S'usr/local/include/tvmet/xpr/Identity.h'
p830
aS'6eede74bff62e8d5f1c64dd218553793'
p831
aa(lp832
S'usr/local/include/tvmet/xpr/VectorOperators.h'
p833
aS'eeb1d64adde31f09899fb8bee245bb5f'
p834
aa(lp835
S'usr/local/include/tvmet/xpr/MatrixOperators.h'
p836
aS'f23565cc6ed92901cc348d07abe539a2'
p837
aa(lp838
S'usr/local/include/tvmet/loop/Gemtm.h'
p839
aS'309cd7b037dd9457d47e85060c1d5c7e'
p840
aa(lp841
S'usr/local/include/tvmet/loop/Matrix.h'
p842
aS'f2279fd87b918774a87921a9fc625864'
p843
aa(lp844
S'usr/local/include/tvmet/loop/Gemmt.h'
p845
aS'a8d71d6908b6f54ebf45ea04160ce76e'
p846
aa(lp847
S'usr/local/include/tvmet/loop/Gemm.h'
p848
aS'a9ec48c2a82e9c44945ee436deaff565'
p849
aa(lp850
S'usr/local/include/tvmet/loop/Vector.h'
p851
aS'fcfaac4bcc7da7aa6fdf0e3b8d85e7ca'
p852
aa(lp853
S'usr/local/include/tvmet/loop/Gemtv.h'
p854
aS'1e2b294263250029be562ec08004da30'
p855
aa(lp856
S'usr/local/include/tvmet/loop/Gemv.h'
p857
aS'32312aaed1059d7fab31109c0a41ec04'
p858
aa(lp859
S'usr/local/include/tvmet/meta/Gemtm.h'
p860
aS'8a7ac25d232dff00190ecd82115dfe8a'
p861
aa(lp862
S'usr/local/include/tvmet/meta/Matrix.h'
p863
aS'c9a324f6bd7ddac9c1d3ca57561feca3'
p864
aa(lp865
S'usr/local/include/tvmet/meta/Gemmt.h'
p866
aS'dc76a102d8903bf903fb8e2daf2aae1c'
p867
aa(lp868
S'usr/local/include/tvmet/meta/Gemm.h'
p869
aS'9f63be6ff69910e8e5a7204ff060f864'
p870
aa(lp871
S'usr/local/include/tvmet/meta/Vector.h'
p872
aS'92b8c6cbc7bf1f3b2395bbc6f1628ed9'
p873
aa(lp874
S'usr/local/include/tvmet/meta/Gemtv.h'
p875
aS'fac81ea4c2f3dea2d0b0aa3fe8e62b16'
p876
aa(lp877
S'usr/local/include/tvmet/meta/Gemv.h'
p878
aS'5192e37bb551ea886a657b51965673f0'
p879
aa(lp880
S'usr/local/include/tvmet/config/config-vc71.h.in'
p881
aS'e26547cd025b3bc2b7a5f30170201a98'
p882
aa(lp883
S'usr/local/include/tvmet/config/config-pgi.h'
p884
aS'e9cfbbebbfd7325077e012de195b2681'
p885
aa(lp886
S'usr/local/include/tvmet/config/config-kcc.h'
p887
aS'29593fc09f71368ca874d4ec1c90a568'
p888
aa(lp889
S'usr/local/include/tvmet/config/config-vc71.h'
p890
aS'aa546abafd9268491840eee160f0b1f5'
p891
aa(lp892
S'usr/local/include/tvmet/config/config-gcc.h'
p893
aS'435141a993964f4650cf09dfdb4b6302'
p894
aa(lp895
S'usr/local/include/tvmet/config/config-icc.h'
p896
aS'3d0823ecd9b47b32415c27d2971cb168'
p897
aa(lp898
S'usr/local/include/COS/CosNotification.hh'
p899
aS'af59721a14b61122b009c2194e3e5fc9'
p900
aa(lp901
S'usr/local/include/COS/CosNotifyFilter.hh'
p902
aS'4ca137f971a1e6933f1e2fdbc629a41c'
p903
aa(lp904
S'usr/local/include/COS/CosNotifyComm.hh'
p905
aS'b62e97fa4f9dba8499fb010a00b324cd'
p906
aa(lp907
S'usr/local/include/COS/CosTime.hh'
p908
aS'395198bad1ca4b25921e90621f5fba3f'
p909
aa(lp910
S'usr/local/include/COS/TimeBase.hh'
p911
aS'4673ece9b9fce1e31f6289d34ecb8330'
p912
aa(lp913
S'usr/local/include/COS/CosEventComm.hh'
p914
aS'9100401ccd4a88b788bb89811a73319d'
p915
aa(lp916
S'usr/local/include/COS/CosNotifyChannelAdmin.hh'
p917
aS'617dce06c593a013cdf857d7cdb53bd1'
p918
aa(lp919
S'usr/local/include/COS/CosLifeCycle.hh'
p920
aS'b388c00f59eb9b6b401a5e61eb9d5332'
p921
aa(lp922
S'usr/local/include/COS/COS_sysdep.h'
p923
aS'9540ba11a22338562ec68ddc6a14e3fd'
p924
aa(lp925
S'usr/local/include/COS/CosEventChannelAdmin.hh'
p926
aS'dfee252c714bc0aaff4aecc1793702dc'
p927
aa(lp928
S'usr/local/include/omniORB4/omniConnectionMgmt.h'
p929
aS'e1e34294c5ba2a711e8a1575dfba0d7f'
p930
aa(lp931
S'usr/local/include/omniORB4/omniTypedefs.hh'
p932
aS'b5b13d869ff794ddd7d969eb9128851c'
p933
aa(lp934
S'usr/local/include/omniORB4/poa_enums_poa.hh'
p935
aS'c5ef7dd9fdadb1e6726af9acfbc72a60'
p936
aa(lp937
S'usr/local/include/omniORB4/finalCleanup.h'
p938
aS'216d5f4173a174ed0e5f87769a7edeef'
p939
aa(lp940
S'usr/local/include/omniORB4/omniObjRef.h'
p941
aS'1a5cfb743023ac5443dae7d0dd78d6bd'
p942
aa(lp943
S'usr/local/include/omniORB4/CORBA_sysdep_auto.h'
p944
aS'aa91b60f06242dace1b5a72ebee47d87'
p945
aa(lp946
S'usr/local/include/omniORB4/optionalFeatures.h'
p947
aS'd9a6a052ba6452ddc97f0fe109aa038b'
p948
aa(lp949
S'usr/local/include/omniORB4/omniTransport.h'
p950
aS'a1cb2c4e81ccc5c0bf32773828fa30a6'
p951
aa(lp952
S'usr/local/include/omniORB4/GIOP.h'
p953
aS'c0c2cd42f786a9034b34f0ec9a6cf97f'
p954
aa(lp955
S'usr/local/include/omniORB4/omniURI.h'
p956
aS'46b1db361b81c5ddfa07a929080eec86'
p957
aa(lp958
S'usr/local/include/omniORB4/templatedefns.h'
p959
aS'15af56877150495925b66a754192a2d4'
p960
aa(lp961
S'usr/local/include/omniORB4/distdate.hh'
p962
aS'2c544a640140120809f47c5eb33dfe27'
p963
aa(lp964
S'usr/local/include/omniORB4/CORBA_Policy.h'
p965
aS'98b217c50ff5ee37fae5ef1de8295bd4'
p966
aa(lp967
S'usr/local/include/omniORB4/CORBA_LocalObject.h'
p968
aS'd6bdfb358d8575f1aba9cd694fe1f1cd'
p969
aa(lp970
S'usr/local/include/omniORB4/CORBA_AbstractBase.h'
p971
aS'3f31cd57e07f1352637e75b64cc34067'
p972
aa(lp973
S'usr/local/include/omniORB4/valueFactoryManager.h'
p974
aS'd5aff5eed333fc62148424113e2e33eb'
p975
aa(lp976
S'usr/local/include/omniORB4/sslContext.h'
p977
aS'76ce770272268891b1d9be14ac2c9e58'
p978
aa(lp979
S'usr/local/include/omniORB4/CORBA_Context.h'
p980
aS'd4bdb5f8222e2c23ade9df175ab92c21'
p981
aa(lp982
S'usr/local/include/omniORB4/omniServer.h'
p983
aS'24e2e16e0e1f35fa16ad4e72efdb4986'
p984
aa(lp985
S'usr/local/include/omniORB4/fixed.h'
p986
aS'49616d655bed0120e911774768ca32b1'
p987
aa(lp988
S'usr/local/include/omniORB4/valueTemplatedecls.h'
p989
aS'bfc8ef85a419bf95a00c91711dcbe0a3'
p990
aa(lp991
S'usr/local/include/omniORB4/ir_defs.hh'
p992
aS'ee897a53fb6aa929ad12496266527906'
p993
aa(lp994
S'usr/local/include/omniORB4/omniORBcompat.h'
p995
aS'4cb4386ba14608af005bcee8dbb17c39'
p996
aa(lp997
S'usr/local/include/omniORB4/omniServant.h'
p998
aS'01137107f3e4902c97a62c5363329115'
p999
aa(lp1000
S'usr/local/include/omniORB4/CORBA_basetypes.h'
p1001
aS'fba75318ad57023875743014db04fdf2'
p1002
aa(lp1003
S'usr/local/include/omniORB4/templatedecls.h'
p1004
aS'6ed28701e7c97b9f36244db07c014133'
p1005
aa(lp1006
S'usr/local/include/omniORB4/poa_defs.h'
p1007
aS'23c3724d2774dec2bdebc065553374f7'
p1008
aa(lp1009
S'usr/local/include/omniORB4/callDescriptor.h'
p1010
aS'17e9ff42a3899a3e11a9b73ce3fd0e48'
p1011
aa(lp1012
S'usr/local/include/omniORB4/streamOperators.h'
p1013
aS'4987f321bf8046b2a53375755bea2e1d'
p1014
aa(lp1015
S'usr/local/include/omniORB4/proxyFactory.h'
p1016
aS'732c444f7f6e3f1c3838424056910b58'
p1017
aa(lp1018
S'usr/local/include/omniORB4/CORBA_ValueBase.h'
p1019
aS'222e527b3effbb36d14daa8a297e07f2'
p1020
aa(lp1021
S'usr/local/include/omniORB4/dynAny.h'
p1022
aS'401d73b9301dd2ca9c973e2baa567c96'
p1023
aa(lp1024
S'usr/local/include/omniORB4/objTracker.h'
p1025
aS'005ce82cfcdad6e8e1f86e49b8284b17'
p1026
aa(lp1027
S'usr/local/include/omniORB4/valueType.h'
p1028
aS'f69401d2a4a31cdd95f51b3080165a67'
p1029
aa(lp1030
S'usr/local/include/omniORB4/CORBA_String.h'
p1031
aS'8c18b5c6ed992f414faa4fa9d169722e'
p1032
aa(lp1033
S'usr/local/include/omniORB4/CORBA_NamedValue.h'
p1034
aS'0850ee0bf676497b74841ed152636f44'
p1035
aa(lp1036
S'usr/local/include/omniORB4/unixConnection.h'
p1037
aS'a2722e91d273b463ed635a0c8b522ca2'
p1038
aa(lp1039
S'usr/local/include/omniORB4/CORBA_TypeCode_member.h'
p1040
aS'357087d7f1f5cd06f8553d09407e4b96'
p1041
aa(lp1042
S'usr/local/include/omniORB4/CORBA_Object_vartypes.h'
p1043
aS'a0458e83c78c266f7075abc79e7c94d7'
p1044
aa(lp1045
S'usr/local/include/omniORB4/IOP_S.h'
p1046
aS'ec04c06e4388cc931d8a145d7a2c5688'
p1047
aa(lp1048
S'usr/local/include/omniORB4/CORBA_primitive_types.h'
p1049
aS'a3c1d567b1501a72d95e5b8b4eb28351'
p1050
aa(lp1051
S'usr/local/include/omniORB4/CORBA_Any.h'
p1052
aS'b04df8d3d35b901cc278f61a372cecb4'
p1053
aa(lp1054
S'usr/local/include/omniORB4/codeSets.h'
p1055
aS'e60800e2058aebd33ec2ec8b239a0e9f'
p1056
aa(lp1057
S'usr/local/include/omniORB4/boa.h'
p1058
aS'3fb85025f239620248bc9d726c92393c'
p1059
aa(lp1060
S'usr/local/include/omniORB4/BiDirPolicy.h'
p1061
aS'868c52c041fe0b1336e50a626bf1f029'
p1062
aa(lp1063
S'usr/local/include/omniORB4/omniORB.h'
p1064
aS'772c8736bd9a1a96d53145041a8aaf3f'
p1065
aa(lp1066
S'usr/local/include/omniORB4/IOP_C.h'
p1067
aS'5236ab1bcc8a0320c050b091493cb94b'
p1068
aa(lp1069
S'usr/local/include/omniORB4/tcpAddress.h'
p1070
aS'8c5cfdbd8a03f5525e53495672c3e6da'
p1071
aa(lp1072
S'usr/local/include/omniORB4/IOP.h'
p1073
aS'7a61ac59ae54bb0af6ca16b6860d7eed'
p1074
aa(lp1075
S'usr/local/include/omniORB4/CORBA_ValueBase_vartypes.h'
p1076
aS'1b716d24d99effb37ace45c2bb70dd23'
p1077
aa(lp1078
S'usr/local/include/omniORB4/omniIOR.h'
p1079
aS'96117e8dec20bfc76f671751fb437bf1'
p1080
aa(lp1081
S'usr/local/include/omniORB4/tcpEndpoint.h'
p1082
aS'0c1dcfa626fa61978dde3dc8396eb0be'
p1083
aa(lp1084
S'usr/local/include/omniORB4/linkHacks.h'
p1085
aS'ebe6bb231b92bbbb4a935e151c8f8fc0'
p1086
aa(lp1087
S'usr/local/include/omniORB4/corbaidl_operators.hh'
p1088
aS'75e3d20c588af31a62b5fb4b1c2dc2ae'
p1089
aa(lp1090
S'usr/local/include/omniORB4/cdrStream.h'
p1091
aS'f322b6d10f0fc32e18d6f3cd2a090182'
p1092
aa(lp1093
S'usr/local/include/omniORB4/CORBA_Request.h'
p1094
aS'5aed271e2e26353265a068de8f9e6e12'
p1095
aa(lp1096
S'usr/local/include/omniORB4/CORBA_Principal.h'
p1097
aS'decb80081b81ccc108199e04eb1cfe6c'
p1098
aa(lp1099
S'usr/local/include/omniORB4/CORBA_UnknownUserException.h'
p1100
aS'9b8129df417a4def2feb307dbe5faa41'
p1101
aa(lp1102
S'usr/local/include/omniORB4/unixAddress.h'
p1103
aS'6d7637a57a4a875166335b53802268d4'
p1104
aa(lp1105
S'usr/local/include/omniORB4/minorCode.h'
p1106
aS'ffe8f66654e02b866ae854093e5f7be6'
p1107
aa(lp1108
S'usr/local/include/omniORB4/CORBA_ORB.h'
p1109
aS'55f8d292c1046b585ab5a1860d5ad723'
p1110
aa(lp1111
S'usr/local/include/omniORB4/CORBA_vartypes.h'
p1112
aS'2622b72d000c94b95dc497ee681da884'
p1113
aa(lp1114
S'usr/local/include/omniORB4/seqTemplatedecls.h'
p1115
aS'e8cfe9cef66774c7832591147366188e'
p1116
aa(lp1117
S'usr/local/include/omniORB4/acconfig.h'
p1118
aS'd56966662c8eb3382c518e1d407c1ef7'
p1119
aa(lp1120
S'usr/local/include/omniORB4/boxes_poa.hh'
p1121
aS'e5e27d35814d304575e595b06cb3c538'
p1122
aa(lp1123
S'usr/local/include/omniORB4/poa_enums_defs.hh'
p1124
aS'e1e873b0d4816ebb1386b166d1eec455'
p1125
aa(lp1126
S'usr/local/include/omniORB4/poa_enums_operators.hh'
p1127
aS'05c161d0381bd10ca2c84fb373e8aa3f'
p1128
aa(lp1129
S'usr/local/include/omniORB4/corbaidl_poa.hh'
p1130
aS'5b118860a41aac223cd3bac75475ebd9'
p1131
aa(lp1132
S'usr/local/include/omniORB4/CORBA_DomainManager.h'
p1133
aS'8f736b60a6d5bd42e67b7c914b853e78'
p1134
aa(lp1135
S'usr/local/include/omniORB4/omniConnectionData.hh'
p1136
aS'8fae8adad3f07377742459232520c774'
p1137
aa(lp1138
S'usr/local/include/omniORB4/boxes_operators.hh'
p1139
aS'ed0e2873baa4bfedfb0ec88e92ab7837'
p1140
aa(lp1141
S'usr/local/include/omniORB4/omniPolicy.h'
p1142
aS'381019ca3b05b82d7ec0c3f64edc77ba'
p1143
aa(lp1144
S'usr/local/include/omniORB4/CORBA_Any_vartypes.h'
p1145
aS'ec0473d5a45d27e4cd8183059b05e386'
p1146
aa(lp1147
S'usr/local/include/omniORB4/tcpTransportImpl.h'
p1148
aS'93047efcd0c28bfd982b5947ac234fef'
p1149
aa(lp1150
S'usr/local/include/omniORB4/omniAsyncInvoker.h'
p1151
aS'4d663936283f4986105afa2009a36eca'
p1152
aa(lp1153
S'usr/local/include/omniORB4/omniInternal.h'
p1154
aS'1f3ec24379ab0346790a82074353200c'
p1155
aa(lp1156
S'usr/local/include/omniORB4/omniObjKey.h'
p1157
aS'34f8549b14ef2a7d04821f64d710de9b'
p1158
aa(lp1159
S'usr/local/include/omniORB4/stringtypes.h'
p1160
aS'e6a8dde8cfa706cd5b7a39e1b923c955'
p1161
aa(lp1162
S'usr/local/include/omniORB4/wstringtypes.h'
p1163
aS'75edb545bbc107ebcbfefc218af1b063'
p1164
aa(lp1165
S'usr/local/include/omniORB4/CORBA_Fixed.h'
p1166
aS'78fb650bec6338fcc20ea4f6d36c2372'
p1167
aa(lp1168
S'usr/local/include/omniORB4/poa_poa.h'
p1169
aS'39374a36d2339a47dd464f07184ce4d3'
p1170
aa(lp1171
S'usr/local/include/omniORB4/CORBA_BOA.h'
p1172
aS'b573269c3bf9cc450591c260489757ca'
p1173
aa(lp1174
S'usr/local/include/omniORB4/CORBA_sysdep_trad.h'
p1175
aS'cab2e9787dd8316dedad327881c0dd89'
p1176
aa(lp1177
S'usr/local/include/omniORB4/giopEndpoint.h'
p1178
aS'68a621a49bd52f5b8f6449dc0c8ee371'
p1179
aa(lp1180
S'usr/local/include/omniORB4/CORBA_LocalObject_vartypes.h'
p1181
aS'd8fdab3c97deb1933fa75a38c1e0028f'
p1182
aa(lp1183
S'usr/local/include/omniORB4/callHandle.h'
p1184
aS'93207e521079e7a6b3da0f7cddea4382'
p1185
aa(lp1186
S'usr/local/include/omniORB4/CORBA.h'
p1187
aS'bee44d7bebaef5a1837057b95acfcb70'
p1188
aa(lp1189
S'usr/local/include/omniORB4/seqTemplatedefns.h'
p1190
aS'd245fd89276c59d5f716a9ccc6ddffe4'
p1191
aa(lp1192
S'usr/local/include/omniORB4/ir_poa.hh'
p1193
aS'c9c18f0e685293f396ad9d5ba7aa19f2'
p1194
aa(lp1195
S'usr/local/include/omniORB4/CORBA_Exception.h'
p1196
aS'13455b0c4187979038208580ee2400da'
p1197
aa(lp1198
S'usr/local/include/omniORB4/bootstrap.hh'
p1199
aS'e7e8b41ac7ed9d0c0878a49e78567200'
p1200
aa(lp1201
S'usr/local/include/omniORB4/CORBA_sysdep.h'
p1202
aS'3b523039fc6abe77fef3a6589e026349'
p1203
aa(lp1204
S'usr/local/include/omniORB4/CORBA_ServerRequest.h'
p1205
aS'711238db12b1df38377a143c0514b4d2'
p1206
aa(lp1207
S'usr/local/include/omniORB4/corbaidl_defs.hh'
p1208
aS'eb30772d8a018f93be445bd1a90a0026'
p1209
aa(lp1210
S'usr/local/include/omniORB4/omniutilities.h'
p1211
aS'ddf1c16fb47a94efc1c5ca5512c072d1'
p1212
aa(lp1213
S'usr/local/include/omniORB4/CORBA_Environment.h'
p1214
aS'67ff02aa626bf6dd5a5549e89bc203a8'
p1215
aa(lp1216
S'usr/local/include/omniORB4/omniInterceptors.h'
p1217
aS'adbac6f7503323a16a4a4686f6ad4d17'
p1218
aa(lp1219
S'usr/local/include/omniORB4/IIOP.h'
p1220
aS'b14f3d6ad5704bdca9d84c7b5fa5daaa'
p1221
aa(lp1222
S'usr/local/include/omniORB4/local_config.h'
p1223
aS'cce55f808cace3e62d1f4bfe9182a57e'
p1224
aa(lp1225
S'usr/local/include/omniORB4/unixEndpoint.h'
p1226
aS'e3f3018417170fb19b81f42d1669b1ec'
p1227
aa(lp1228
S'usr/local/include/omniORB4/CORBA_ExceptionList.h'
p1229
aS'd2ef3f4400ebc1743df2bacb4ba6e996'
p1230
aa(lp1231
S'usr/local/include/omniORB4/CORBA_Object.h'
p1232
aS'08a90000e846dabccffbad56b058567a'
p1233
aa(lp1234
S'usr/local/include/omniORB4/boxes_defs.hh'
p1235
aS'bf2b749f86d66d7f1efb5b0999137881'
p1236
aa(lp1237
S'usr/local/include/omniORB4/CORBA_Current.h'
p1238
aS'7584ddefdfbf857d0fd3b1d5c77c85db'
p1239
aa(lp1240
S'usr/local/include/omniORB4/CORBA_TypeCode.h'
p1241
aS'f06e42cac72e0fd111e094a0fc41b342'
p1242
aa(lp1243
S'usr/local/include/omniORB4/unixTransportImpl.h'
p1244
aS'583cff852c73d952a6818362f20059d2'
p1245
aa(lp1246
S'usr/local/include/omniORB4/CORBA_static_fns.h'
p1247
aS'55105de8b8fe502da361bb6438597d83'
p1248
aa(lp1249
S'usr/local/include/omniORB4/userexception.h'
p1250
aS'524d61f0e2970252f35d1b4bea26a655'
p1251
aa(lp1252
S'usr/local/include/omniORB4/Naming.hh'
p1253
aS'a05e98338b04d6f6ab3d2939654a27da'
p1254
aa(lp1255
S'usr/local/include/omniORB4/ir_operators.hh'
p1256
aS'1966890939f72140c34e35c3ce333e02'
p1257
aa(lp1258
S'usr/local/include/omniORB4/anyStream.h'
p1259
aS'9b0112f93e24eb137c87aa0fc1a13dbb'
p1260
aa(lp1261
S'usr/local/include/omniORB4/corba_operators.h'
p1262
aS'eb723c7097670dc5ae23edda5a31929d'
p1263
aa(lp1264
S'usr/local/include/omniORB4/tcpConnection.h'
p1265
aS'3af801d38514b58f349a26940cecfbf8'
p1266
aa(lp1267
S'usr/local/include/omniORB4/tracedthread.h'
p1268
aS'f51911cb8cd6b95612c7e64cfacb927f'
p1269
aa(lp1270
S'usr/local/include/omniORB4/poa.h'
p1271
aS'bd3d6d8e9a4743b0718f897447d9616a'
p1272
aa(lp1273
S'usr/local/include/omniORB4/valueTemplatedefns.h'
p1274
aS'a44ed1745272ba7617aaf1293233e420'
p1275
aa(lp1276
S'usr/local/include/omniORB4/internal/inProcessIdentity.h'
p1277
aS'7a112d21b48eca4343eb75f97bd18b79'
p1278
aa(lp1279
S'usr/local/include/omniORB4/internal/anonObject.h'
p1280
aS'c9e304c1d0ff01a536cbce483a14060e'
p1281
aa(lp1282
S'usr/local/include/omniORB4/internal/rmutex.h'
p1283
aS'899c5511a12b58775e46f03a91b67387'
p1284
aa(lp1285
S'usr/local/include/omniORB4/internal/dynamicLib.h'
p1286
aS'c52768ad33ec2e98143b74e0bfe09207'
p1287
aa(lp1288
S'usr/local/include/omniORB4/internal/giopServer.h'
p1289
aS'78375c6a22c6cf67a03b3af91be743d6'
p1290
aa(lp1291
S'usr/local/include/omniORB4/internal/remoteIdentity.h'
p1292
aS'0684d7ce49c44e8f5844af050d1e255d'
p1293
aa(lp1294
S'usr/local/include/omniORB4/internal/libcWrapper.h'
p1295
aS'11942241ccccbef36a30f91e607043fc'
p1296
aa(lp1297
S'usr/local/include/omniORB4/internal/corbaBoa.h'
p1298
aS'06ae037bfc3ce604ce330c0aceb11584'
p1299
aa(lp1300
S'usr/local/include/omniORB4/internal/dynAnyImpl.h'
p1301
aS'e79ba3633a8bf0d78bdac36e71cec993'
p1302
aa(lp1303
S'usr/local/include/omniORB4/internal/poaimpl.h'
p1304
aS'59737643b6f17697aac4dcc2dbd8f5b3'
p1305
aa(lp1306
S'usr/local/include/omniORB4/internal/poacurrentimpl.h'
p1307
aS'67024926fda1d75c8848cf199eefc0d5'
p1308
aa(lp1309
S'usr/local/include/omniORB4/internal/objectStub.h'
p1310
aS'dcd8db4380eb2e7605cde82af2f80701'
p1311
aa(lp1312
S'usr/local/include/omniORB4/internal/dynamicImplementation.h'
p1313
aS'fe6305847094f6cf5f6f991d89fba69b'
p1314
aa(lp1315
S'usr/local/include/omniORB4/internal/codeSetUtil.h'
p1316
aS'7cc33d892fdff9c09360412cce2fc9b4'
p1317
aa(lp1318
S'usr/local/include/omniORB4/internal/context.h'
p1319
aS'77fbfc1c398042de7ac1b172d41161d6'
p1320
aa(lp1321
S'usr/local/include/omniORB4/internal/SocketCollection.h'
p1322
aS'254fd37e1f644ab9e930975431e8648c'
p1323
aa(lp1324
S'usr/local/include/omniORB4/internal/corbaOrb.h'
p1325
aS'066b086fd684527b406243aa90f7362e'
p1326
aa(lp1327
S'usr/local/include/omniORB4/internal/deferredRequest.h'
p1328
aS'01d8981831043fd31b46c796799f4171'
p1329
aa(lp1330
S'usr/local/include/omniORB4/internal/invoker.h'
p1331
aS'22090af961a5421a0e3ca5747b1d3729'
p1332
aa(lp1333
S'usr/local/include/omniORB4/internal/orbOptions.h'
p1334
aS'b60707d3568ac63c43e1f7729cae0b8e'
p1335
aa(lp1336
S'usr/local/include/omniORB4/internal/tcParser.h'
p1337
aS'ff08025f9c178049b688aad484cc0065'
p1338
aa(lp1339
S'usr/local/include/omniORB4/internal/shutdownIdentity.h'
p1340
aS'336b278d0a8d6cd378e229151afce0de'
p1341
aa(lp1342
S'usr/local/include/omniORB4/internal/giopStream.h'
p1343
aS'6324f3cd80fcea911d161eecb548eb97'
p1344
aa(lp1345
S'usr/local/include/omniORB4/internal/orbParameters.h'
p1346
aS'f5bdce8ea4aba0423a4eb3968d7c3cba'
p1347
aa(lp1348
S'usr/local/include/omniORB4/internal/omniCurrent.h'
p1349
aS'b895ea913ad240efa01babe0ee66fe70'
p1350
aa(lp1351
S'usr/local/include/omniORB4/internal/localIdentity.h'
p1352
aS'bfd9babf6f8f63ad21d9e6553d70e2a6'
p1353
aa(lp1354
S'usr/local/include/omniORB4/internal/giopStrand.h'
p1355
aS'2ad545218a84c9f188fa97055b668dea'
p1356
aa(lp1357
S'usr/local/include/omniORB4/internal/GIOP_C.h'
p1358
aS'032b0b46bd8ae01e2150089fee80f930'
p1359
aa(lp1360
S'usr/local/include/omniORB4/internal/giopStrandFlags.h'
p1361
aS'378944bbb899881e7bd84728da33adbe'
p1362
aa(lp1363
S'usr/local/include/omniORB4/internal/poamanager.h'
p1364
aS'e635502833c55d6c4ba355043b25fd7d'
p1365
aa(lp1366
S'usr/local/include/omniORB4/internal/objectAdapter.h'
p1367
aS'632627d0fca05fe64bed188c581b614d'
p1368
aa(lp1369
S'usr/local/include/omniORB4/internal/giopBiDir.h'
p1370
aS'ad1085b832c86230aee61f015c11ff7c'
p1371
aa(lp1372
S'usr/local/include/omniORB4/internal/typecode.h'
p1373
aS'3e6c159d67b6707dd2a2e754fd9786d4'
p1374
aa(lp1375
S'usr/local/include/omniORB4/internal/giopWorker.h'
p1376
aS'6aec11a650b1e425630da9a2544e71d5'
p1377
aa(lp1378
S'usr/local/include/omniORB4/internal/GIOP_S.h'
p1379
aS'c2ebe529ca4af8685f923a59e3f6135a'
p1380
aa(lp1381
S'usr/local/include/omniORB4/internal/giopRendezvouser.h'
p1382
aS'c9ee05fd7718f9c997ea1323f276d15b'
p1383
aa(lp1384
S'usr/local/include/omniORB4/internal/objectTable.h'
p1385
aS'84f97403ee5fcb60c2501c67c3df4ba0'
p1386
aa(lp1387
S'usr/local/include/omniORB4/internal/giopMonitor.h'
p1388
aS'010acc77c68dee991b0ee7d08b59d277'
p1389
aa(lp1390
S'usr/local/include/omniORB4/internal/giopStreamImpl.h'
p1391
aS'e08edf83b83c20067f3531209ca36fec'
p1392
aa(lp1393
S'usr/local/include/omniORB4/internal/giopRope.h'
p1394
aS'48e0a62ce2528ab5e4fd9c209c3078e2'
p1395
aa(lp1396
S'usr/local/include/omniORB4/internal/excepthandler.h'
p1397
aS'da0ab35d840419a60a63b146a6bc88d9'
p1398
aa(lp1399
S'usr/local/include/omniORB4/internal/omniIdentity.h'
p1400
aS'15751dd8ea11baca1201e4408f3cc50e'
p1401
aa(lp1402
S'usr/local/include/omniORB4/internal/exceptiondefs.h'
p1403
aS'6989c15434f0a092df0a9bc473b4b2b9'
p1404
aa(lp1405
S'usr/local/include/omniORB4/internal/initRefs.h'
p1406
aS'c2e6ea8178c0b0123741744c918faf98'
p1407
aa(lp1408
S'usr/local/include/omniORB4/internal/transportRules.h'
p1409
aS'e09bdefe7efa83ce0c038ae3e6c31550'
p1410
aa(lp1411
S'usr/local/include/omniORB4/internal/request.h'
p1412
aS'279fa2a08bff9393aacece3c8560f51b'
p1413
aa(lp1414
S'usr/local/include/omniORB4/internal/pseudo.h'
p1415
aS'a4ba74f568fbc9a04f4329af7071ca1c'
p1416
aa(lp1417
S'usr/local/include/omniORB4/internal/initialiser.h'
p1418
aS'62c4822a922497e349924661006887fb'
p1419
aa(lp1420
S'usr/local/share/idl/omniORB/ir.idl'
p1421
aS'b4e7ed748efcda534b5db83d5766c195'
p1422
aa(lp1423
S'usr/local/share/idl/omniORB/orb.idl'
p1424
aS'f79cbc5a20e0f9158356539db039003d'
p1425
aa(lp1426
S'usr/local/share/idl/omniORB/poa_include.idl'
p1427
aS'da3503daada547c9f8653e8cfab59d6a'
p1428
aa(lp1429
S'usr/local/share/idl/omniORB/echo.idl'
p1430
aS'905c3082625b6fc5c42b390837975089'
p1431
aa(lp1432
S'usr/local/share/idl/omniORB/boxes.idl'
p1433
aS'b5a64cd85f15ea5ad29611ac173e9f0d'
p1434
aa(lp1435
S'usr/local/share/idl/omniORB/Naming.idl'
p1436
aS'b8e167c68ad6bb00ae75e8ee557f0866'
p1437
aa(lp1438
S'usr/local/share/idl/omniORB/poa.idl'
p1439
aS'564e1fd9ad254520c78a6d73dfdce4ae'
p1440
aa(lp1441
S'usr/local/share/idl/omniORB/bootstrap.idl'
p1442
aS'063fbeec6f0d58674cabc335f43ec1ba'
p1443
aa(lp1444
S'usr/local/share/idl/omniORB/corbaidl.idl'
p1445
aS'd768daf21dd910ce1ff51efac04409ee'
p1446
aa(lp1447
S'usr/local/share/idl/omniORB/COS/CosObjectIdentity.idl'
p1448
aS'3aee3216490169a4bc183d9554cd3f59'
p1449
aa(lp1450
S'usr/local/share/idl/omniORB/COS/CosTrading.idl'
p1451
aS'95fc041003e03abddf8f1fd4103ea1b3'
p1452
aa(lp1453
S'usr/local/share/idl/omniORB/COS/SECIOP.idl'
p1454
aS'9123c03a87a9f05db90ff6cb2a463dfe'
p1455
aa(lp1456
S'usr/local/share/idl/omniORB/COS/SecurityLevel1.idl'
p1457
aS'709c6a386dadd887490bb24162dd014c'
p1458
aa(lp1459
S'usr/local/share/idl/omniORB/COS/CosTypedNotifyChannelAdmin.idl'
p1460
aS'4acea71055e9569a561b882ba1f7f920'
p1461
aa(lp1462
S'usr/local/share/idl/omniORB/COS/CosNaming.idl'
p1463
aS'e6acab2a7d13c569a8ff4e466a31977c'
p1464
aa(lp1465
S'usr/local/share/idl/omniORB/COS/CosNotification.idl'
p1466
aS'3eb9e6bdc0a9992f47955325b1220e69'
p1467
aa(lp1468
S'usr/local/share/idl/omniORB/COS/CosPersistencePDS_DA.idl'
p1469
aS'dbecf2cfe72b6fdd43a1fd9f740f80a2'
p1470
aa(lp1471
S'usr/local/share/idl/omniORB/COS/CosEventChannelAdmin.idl'
p1472
aS'3f69f8f4c43c0c162d8eff0613921245'
p1473
aa(lp1474
S'usr/local/share/idl/omniORB/COS/CosPersistenceDDO.idl'
p1475
aS'4d96eea6f8db5779e12219755b08a665'
p1476
aa(lp1477
S'usr/local/share/idl/omniORB/COS/TimeBase.idl'
p1478
aS'1f4f3fb5596c35c33fd228dd46cc6569'
p1479
aa(lp1480
S'usr/local/share/idl/omniORB/COS/CosLifeCycle.idl'
p1481
aS'058cd9a7d18b30fcecbffabb25e576ea'
p1482
aa(lp1483
S'usr/local/share/idl/omniORB/COS/DCE_CIOPSecurity.idl'
p1484
aS'ad7d561c8ed14ba980dd08dd3701bf96'
p1485
aa(lp1486
S'usr/local/share/idl/omniORB/COS/CosTSPortability.idl'
p1487
aS'a64f92ca7b8494239d012b8ff1028841'
p1488
aa(lp1489
S'usr/local/share/idl/omniORB/COS/CosPersistencePDS.idl'
p1490
aS'48a331668d60e4ad309d8d0f56e804ac'
p1491
aa(lp1492
S'usr/local/share/idl/omniORB/COS/CosTradingRepos.idl'
p1493
aS'eacf5f83365634b3714bec6ff2f129fc'
p1494
aa(lp1495
S'usr/local/share/idl/omniORB/COS/CosLicensingManager.idl'
p1496
aS'25e3a62f9a8eb55c531d34c34d83ad6e'
p1497
aa(lp1498
S'usr/local/share/idl/omniORB/COS/Lname-library.idl'
p1499
aS'448158c71307e4445aaf231f454187da'
p1500
aa(lp1501
S'usr/local/share/idl/omniORB/COS/CosTradingDynamic.idl'
p1502
aS'811b7914e6be3b1f50843953deeb7da6'
p1503
aa(lp1504
S'usr/local/share/idl/omniORB/COS/CosNotifyChannelAdmin.idl'
p1505
aS'4b7a34c1dd616fbc8333025ac999ef59'
p1506
aa(lp1507
S'usr/local/share/idl/omniORB/COS/CosNotifyFilter.idl'
p1508
aS'90ccf3aca85561c3ff0933d1eb998058'
p1509
aa(lp1510
S'usr/local/share/idl/omniORB/COS/SSLIOP.idl'
p1511
aS'e3823bc62ebd16e966ff176def3c9b59'
p1512
aa(lp1513
S'usr/local/share/idl/omniORB/COS/CosTypedEventChannelAdmin.idl'
p1514
aS'f81dfb89ae647c33f25ed4641b8a7908'
p1515
aa(lp1516
S'usr/local/share/idl/omniORB/COS/CosLifeCycleReference.idl'
p1517
aS'e0e2258533f18188c293105bfd787bd9'
p1518
aa(lp1519
S'usr/local/share/idl/omniORB/COS/SecurityReplaceable.idl'
p1520
aS'068dd18502833ef4e9f4e0f660dc936e'
p1521
aa(lp1522
S'usr/local/share/idl/omniORB/COS/CosTime.idl'
p1523
aS'ff5f0feb8e5f7e1922052ef15b9769f1'
p1524
aa(lp1525
S'usr/local/share/idl/omniORB/COS/CosCompoundLifeCycle.idl'
p1526
aS'2376d88010a924687367ec4173d85623'
p1527
aa(lp1528
S'usr/local/share/idl/omniORB/COS/CosPersistencePO.idl'
p1529
aS'9b08251794dc9d7c8b8b03d57982eb02'
p1530
aa(lp1531
S'usr/local/share/idl/omniORB/COS/CosConcurrencyControl.idl'
p1532
aS'b8ef60c8f052fe6424264e7948af6f28'
p1533
aa(lp1534
S'usr/local/share/idl/omniORB/COS/CosNotifyComm.idl'
p1535
aS'a7674a40c09c19fc7e6e65ad30aba792'
p1536
aa(lp1537
S'usr/local/share/idl/omniORB/COS/CosPersistencePID.idl'
p1538
aS'8686a27372ff00239e91ab34c50fd7a4'
p1539
aa(lp1540
S'usr/local/share/idl/omniORB/COS/CosExternalizationContainment.idl'
p1541
aS'556f1e89731aaaa375751fb142961d61'
p1542
aa(lp1543
S'usr/local/share/idl/omniORB/COS/CosExternalizationReference.idl'
p1544
aS'886c124925a9a374d37c39187ceb2c4c'
p1545
aa(lp1546
S'usr/local/share/idl/omniORB/COS/CosTypedEventComm.idl'
p1547
aS'd5bf2baf02479dbb4503db34efa43c85'
p1548
aa(lp1549
S'usr/local/share/idl/omniORB/COS/CosContainment.idl'
p1550
aS'26e636666c9eff5584f7f646c988a1e5'
p1551
aa(lp1552
S'usr/local/share/idl/omniORB/COS/CosQueryCollection.idl'
p1553
aS'3e0211e87d5f2be0823e3536e6ee538e'
p1554
aa(lp1555
S'usr/local/share/idl/omniORB/COS/CosGraphs.idl'
p1556
aS'73c2be0e75e9bd753b623691a6ee63ee'
p1557
aa(lp1558
S'usr/local/share/idl/omniORB/COS/CosTransactions.idl'
p1559
aS'77efe664e7999eb6971a5dea9afd413d'
p1560
aa(lp1561
S'usr/local/share/idl/omniORB/COS/CosStream.idl'
p1562
aS'7e0fbf69609d9532bf61a34718c0952b'
p1563
aa(lp1564
S'usr/local/share/idl/omniORB/COS/CosReference.idl'
p1565
aS'f8179e3761fbb2667fb5d52f785c8a78'
p1566
aa(lp1567
S'usr/local/share/idl/omniORB/COS/SecurityLevel2.idl'
p1568
aS'd9ed5412f3d2776ec68d7e8a7b60bed3'
p1569
aa(lp1570
S'usr/local/share/idl/omniORB/COS/RDITestTypes.idl'
p1571
aS'3d3eb1ac46ddea5439ca04bf91064c52'
p1572
aa(lp1573
S'usr/local/share/idl/omniORB/COS/CosLifeCycleContainment.idl'
p1574
aS'21f597addccc3b82a4c2d644ac606025'
p1575
aa(lp1576
S'usr/local/share/idl/omniORB/COS/CosRelationships.idl'
p1577
aS'83d1290ea111d44fb78e0cb741f958ec'
p1578
aa(lp1579
S'usr/local/share/idl/omniORB/COS/CosPropertyService.idl'
p1580
aS'75768d92c7ae597f5ba48af55746c955'
p1581
aa(lp1582
S'usr/local/share/idl/omniORB/COS/CosExternalization.idl'
p1583
aS'76bbc49e7ee520097e8a38e4a8d7188c'
p1584
aa(lp1585
S'usr/local/share/idl/omniORB/COS/CosPersistenceDS_CLI.idl'
p1586
aS'07fbd34a5d3eb1c30e35958fd15d59ba'
p1587
aa(lp1588
S'usr/local/share/idl/omniORB/COS/CosTypedNotifyComm.idl'
p1589
aS'43a091d85b3360e48b2da6b61b49eff7'
p1590
aa(lp1591
S'usr/local/share/idl/omniORB/COS/CosCollection.idl'
p1592
aS'c4827af467870d6a2e5ea1c5a2f04890'
p1593
aa(lp1594
S'usr/local/share/idl/omniORB/COS/NRService.idl'
p1595
aS'a992012214567879e6badc4298b4dc3a'
p1596
aa(lp1597
S'usr/local/share/idl/omniORB/COS/SecurityAdmin.idl'
p1598
aS'a59560987a3b4ae1360c3c5dcef6ede7'
p1599
aa(lp1600
S'usr/local/share/idl/omniORB/COS/LifeCycleService.idl'
p1601
aS'fbcf7be22ffad94283ab1df2086d7be9'
p1602
aa(lp1603
S'usr/local/share/idl/omniORB/COS/CosEventComm.idl'
p1604
aS'21f0c54f18c76d8052bf7a4fbf71e304'
p1605
aa(lp1606
S'usr/local/share/idl/omniORB/COS/CosQuery.idl'
p1607
aS'3c3f624d87b899d9cf41fb320bc60e0e'
p1608
aa(lp1609
S'usr/local/share/idl/omniORB/COS/CosTimerEvent.idl'
p1610
aS'2854e6c0c0236fe0c8eecb30fe68666a'
p1611
aa(lp1612
S'usr/local/share/idl/omniORB/COS/Security.idl'
p1613
aS'f657836965c1fa42f699b42b57e931d6'
p1614
aa(lp1615
S'usr/local/share/idl/omniORB/COS/CosPersistencePOM.idl'
p1616
aS'38894c8fa81843d5ff5ddb2ad02f3b3b'
p1617
aa(lp1618
S'usr/local/share/man/man1/tvmet-config.1'
p1619
aS'd9801233a9bf8102118c10287848db3b'
p1620
aa(lp1621
S'usr/local/share/aclocal/tvmet.m4'
p1622
aS'5c9bcc47c03bb34430a0626f143d67fa'
p1623
aa.