(lp0
(lp1
S'var/db/pkg.refcount/dirs/usr/pkg/etc/+PREEXISTING'
p2
aS'e8a321735a638a161eac20e14384f1ca'
p3
aa(lp4
S'var/db/pkg.refcount/dirs/usr/pkg/etc/bash-4.1'
p5
aS'a7b9fc89c21760060c81caff8b9e4927'
p6
aa(lp7
S'var/db/pkg.refcount/dirs/usr/pkg/etc/xmlcatmgr-2.2nb1'
p8
aS'fae73b756b0f544018f7cd64d302edf6'
p9
aa(lp10
S'var/db/pkg.refcount/dirs/usr/pkg/etc/jed-0.99.16nb2'
p11
aS'da40de858f56cca99f5b951f62a0c88c'
p12
aa(lp13
S'var/db/pkg.refcount/dirs/usr/pkg/etc/xml/xmlcatmgr-2.2nb1'
p14
aS'fae73b756b0f544018f7cd64d302edf6'
p15
aa(lp16
S'var/db/pkg.refcount/dirs/usr/pkg/etc/sgml/xmlcatmgr-2.2nb1'
p17
aS'fae73b756b0f544018f7cd64d302edf6'
p18
aa(lp19
S'var/db/pkg.refcount/dirs/usr/pkg/share/xml/xmlcatmgr-2.2nb1'
p20
aS'fae73b756b0f544018f7cd64d302edf6'
p21
aa(lp22
S'var/db/pkg.refcount/dirs/usr/pkg/share/locale/gettext-lib-0.14.6'
p23
aS'939e6f830307cb0962e38476a245bc85'
p24
aa(lp25
S'var/db/pkg.refcount/dirs/usr/pkg/share/sgml/xmlcatmgr-2.2nb1'
p26
aS'fae73b756b0f544018f7cd64d302edf6'
p27
aa(lp28
S'var/db/pkg.refcount/files/etc/profile.d/qnxsdk.bash/bash-4.1'
p29
aS'a7b9fc89c21760060c81caff8b9e4927'
p30
aa(lp31
S'var/db/pkg.refcount/files/etc/profile.d/qnxsdk.bash/+PERMISSIONS'
p32
aS'59e695a036ae4e8cc66371b67896faf6'
p33
aa(lp34
S'var/db/pkg.refcount/files/usr/pkg/lib/charset.alias/libiconv-1.12nb1'
p35
aS'c15ed15808d005a20189bedb8528d766'
p36
aa(lp37
S'var/db/pkg.refcount/files/usr/pkg/etc/jed.conf/+PERMISSIONS'
p38
aS'9e37494bfbae56a0a811eca47bf39f26'
p39
aa(lp40
S'var/db/pkg.refcount/files/usr/pkg/etc/jed.conf/jed-0.99.16nb2'
p41
aS'da40de858f56cca99f5b951f62a0c88c'
p42
aa(lp43
S'var/db/pkg.refcount/files/usr/pkg/etc/xml/catalog/xmlcatmgr-2.2nb1'
p44
aS'fae73b756b0f544018f7cd64d302edf6'
p45
aa(lp46
S'var/db/pkg.refcount/files/usr/pkg/etc/xml/catalog/+PERMISSIONS'
p47
aS'9e37494bfbae56a0a811eca47bf39f26'
p48
aa(lp49
S'var/db/pkg.refcount/files/usr/pkg/etc/sgml/catalog/xmlcatmgr-2.2nb1'
p50
aS'fae73b756b0f544018f7cd64d302edf6'
p51
aa(lp52
S'var/db/pkg.refcount/files/usr/pkg/etc/sgml/catalog/+PERMISSIONS'
p53
aS'9e37494bfbae56a0a811eca47bf39f26'
p54
aa(lp55
S'var/db/pkg.refcount/files/usr/pkg/share/xml/catalog/xmlcatmgr-2.2nb1'
p56
aS'fae73b756b0f544018f7cd64d302edf6'
p57
aa(lp58
S'var/db/pkg.refcount/files/usr/pkg/share/xml/catalog/+PERMISSIONS'
p59
aS'9e37494bfbae56a0a811eca47bf39f26'
p60
aa(lp61
S'var/db/pkg.refcount/files/usr/pkg/share/locale/locale.alias/gettext-lib-0.14.6'
p62
aS'939e6f830307cb0962e38476a245bc85'
p63
aa(lp64
S'var/db/pkg.refcount/files/usr/pkg/share/sgml/catalog/xmlcatmgr-2.2nb1'
p65
aS'fae73b756b0f544018f7cd64d302edf6'
p66
aa(lp67
S'var/db/pkg.refcount/files/usr/pkg/share/sgml/catalog/+PERMISSIONS'
p68
aS'9e37494bfbae56a0a811eca47bf39f26'
p69
aa(lp70
S'var/db/pkg/pkgdb.byfile.db'
p71
aS'470575b9a67e171b4f7e5d8a69a2e42f'
p72
aa(lp73
S'var/db/pkg/docbook-xsl-1.74.0nb1/+SIZE_ALL'
p74
aS'897316929176464ebc9ad085f31e7284'
p75
aa(lp76
S'var/db/pkg/docbook-xsl-1.74.0nb1/+INSTALLED_INFO'
p77
aS'65d6bb0a6aa6f7d6e5551405db02d6f9'
p78
aa(lp79
S'var/db/pkg/docbook-xsl-1.74.0nb1/+COMMENT'
p80
aS'54201ceb6ef807881d4703936efdfcc5'
p81
aa(lp82
S'var/db/pkg/docbook-xsl-1.74.0nb1/+REQUIRED_BY'
p83
aS'f9e4cd4dba24bcd4a5bbad8edb447833'
p84
aa(lp85
S'var/db/pkg/docbook-xsl-1.74.0nb1/+BUILD_VERSION'
p86
aS'c8ef401da1348640319fa994a214a37b'
p87
aa(lp88
S'var/db/pkg/docbook-xsl-1.74.0nb1/+CONTENTS'
p89
aS'1315710e3092870d237bfe1cf481048e'
p90
aa(lp91
S'var/db/pkg/docbook-xsl-1.74.0nb1/+SIZE_PKG'
p92
aS'897316929176464ebc9ad085f31e7284'
p93
aa(lp94
S'var/db/pkg/docbook-xsl-1.74.0nb1/+DEINSTALL'
p95
aS'ac746bd47d63cb0728bb900193139aff'
p96
aa(lp97
S'var/db/pkg/docbook-xsl-1.74.0nb1/+DESC'
p98
aS'ad60862d0606214bc5ede6ce4546702d'
p99
aa(lp100
S'var/db/pkg/docbook-xsl-1.74.0nb1/+INSTALL'
p101
aS'91bfc344fc2f5584f0ddde9bea8dda35'
p102
aa(lp103
S'var/db/pkg/docbook-xsl-1.74.0nb1/+BUILD_INFO'
p104
aS'cb4e0041a078fed6b38048d80a642f48'
p105
aa(lp106
S'var/db/pkg/autoconf213-2.13nb1/+INFO_FILES'
p107
aS'fca182d3d6fa816bb4d5495d2e97d157'
p108
aa(lp109
S'var/db/pkg/autoconf213-2.13nb1/+SIZE_ALL'
p110
aS'897316929176464ebc9ad085f31e7284'
p111
aa(lp112
S'var/db/pkg/autoconf213-2.13nb1/+INSTALLED_INFO'
p113
aS'65d6bb0a6aa6f7d6e5551405db02d6f9'
p114
aa(lp115
S'var/db/pkg/autoconf213-2.13nb1/+COMMENT'
p116
aS'f02c17a96f57c7df1b99629a445db98a'
p117
aa(lp118
S'var/db/pkg/autoconf213-2.13nb1/+REQUIRED_BY'
p119
aS'168b5138e5894132d4cbb8576310e048'
p120
aa(lp121
S'var/db/pkg/autoconf213-2.13nb1/+BUILD_VERSION'
p122
aS'f073d36db85e0a27d0594c67895c71ee'
p123
aa(lp124
S'var/db/pkg/autoconf213-2.13nb1/+CONTENTS'
p125
aS'aacaea9e4be0d89798e39f3d1550bbbb'
p126
aa(lp127
S'var/db/pkg/autoconf213-2.13nb1/+SIZE_PKG'
p128
aS'897316929176464ebc9ad085f31e7284'
p129
aa(lp130
S'var/db/pkg/autoconf213-2.13nb1/+DEINSTALL'
p131
aS'ced6bfc118a0b519f1617522512fd8a4'
p132
aa(lp133
S'var/db/pkg/autoconf213-2.13nb1/+DESC'
p134
aS'52104f9718c9b43e42430b68445087fc'
p135
aa(lp136
S'var/db/pkg/autoconf213-2.13nb1/+INSTALL'
p137
aS'39a9691c7da87102738f596791ea7537'
p138
aa(lp139
S'var/db/pkg/autoconf213-2.13nb1/+BUILD_INFO'
p140
aS'd8bd92c36a3a878c48b3196fc86907fd'
p141
aa(lp142
S'var/db/pkg/libgetopt-1.4.4/+SIZE_ALL'
p143
aS'897316929176464ebc9ad085f31e7284'
p144
aa(lp145
S'var/db/pkg/libgetopt-1.4.4/+INSTALLED_INFO'
p146
aS'65d6bb0a6aa6f7d6e5551405db02d6f9'
p147
aa(lp148
S'var/db/pkg/libgetopt-1.4.4/+COMMENT'
p149
aS'1158e29b380eceab88498b97ede8cff0'
p150
aa(lp151
S'var/db/pkg/libgetopt-1.4.4/+REQUIRED_BY'
p152
aS'9c21f34f988d44993bcc2e48ee04e787'
p153
aa(lp154
S'var/db/pkg/libgetopt-1.4.4/+BUILD_VERSION'
p155
aS'5d78000b6cb1fc1e329b93eec7b64509'
p156
aa(lp157
S'var/db/pkg/libgetopt-1.4.4/+CONTENTS'
p158
aS'a3c31e817064b6c2eef769020f5e122e'
p159
aa(lp160
S'var/db/pkg/libgetopt-1.4.4/+SIZE_PKG'
p161
aS'897316929176464ebc9ad085f31e7284'
p162
aa(lp163
S'var/db/pkg/libgetopt-1.4.4/+DESC'
p164
aS'bd45987d3aee366e6932341f4ce6188a'
p165
aa(lp166
S'var/db/pkg/libgetopt-1.4.4/+BUILD_INFO'
p167
aS'd3bb9165aa083ca71682b5baf5f7fc91'
p168
aa(lp169
S'var/db/pkg/pax-20080110/+SIZE_ALL'
p170
aS'897316929176464ebc9ad085f31e7284'
p171
aa(lp172
S'var/db/pkg/pax-20080110/+INSTALLED_INFO'
p173
aS'65d6bb0a6aa6f7d6e5551405db02d6f9'
p174
aa(lp175
S'var/db/pkg/pax-20080110/+COMMENT'
p176
aS'533d22d9e43a9848b4e35e5d3a493c75'
p177
aa(lp178
S'var/db/pkg/pax-20080110/+BUILD_VERSION'
p179
aS'4aa47bda182453c9c362542d946a8e73'
p180
aa(lp181
S'var/db/pkg/pax-20080110/+CONTENTS'
p182
aS'512b1fa53da6062c7628a5d0c0d9f759'
p183
aa(lp184
S'var/db/pkg/pax-20080110/+SIZE_PKG'
p185
aS'897316929176464ebc9ad085f31e7284'
p186
aa(lp187
S'var/db/pkg/pax-20080110/+DESC'
p188
aS'f5a020de77712cbce8aaa61ff3f62d9b'
p189
aa(lp190
S'var/db/pkg/pax-20080110/+BUILD_INFO'
p191
aS'da53184620496e7ac0aff3eef228edb9'
p192
aa(lp193
S'var/db/pkg/cmake-2.8.1/+SIZE_ALL'
p194
aS'897316929176464ebc9ad085f31e7284'
p195
aa(lp196
S'var/db/pkg/cmake-2.8.1/+COMMENT'
p197
aS'3b3e0ccd6c7186a460ccead6cfc2bfbe'
p198
aa(lp199
S'var/db/pkg/cmake-2.8.1/+BUILD_VERSION'
p200
aS'124d7f7860d910f1f8baa255bcfb25f1'
p201
aa(lp202
S'var/db/pkg/cmake-2.8.1/+CONTENTS'
p203
aS'be377f3a50d7766102b268cbe23a7523'
p204
aa(lp205
S'var/db/pkg/cmake-2.8.1/+SIZE_PKG'
p206
aS'897316929176464ebc9ad085f31e7284'
p207
aa(lp208
S'var/db/pkg/cmake-2.8.1/+DESC'
p209
aS'de29c6c41568ae8c7f9a66da2b48f268'
p210
aa(lp211
S'var/db/pkg/cmake-2.8.1/+BUILD_INFO'
p212
aS'5c81e532c616f2fe3ce14984f42654d3'
p213
aa(lp214
S'var/db/pkg/readline-6.1/+INFO_FILES'
p215
aS'c0d4de53f944c9a9a99a7c18146d557e'
p216
aa(lp217
S'var/db/pkg/readline-6.1/+SIZE_ALL'
p218
aS'897316929176464ebc9ad085f31e7284'
p219
aa(lp220
S'var/db/pkg/readline-6.1/+INSTALLED_INFO'
p221
aS'65d6bb0a6aa6f7d6e5551405db02d6f9'
p222
aa(lp223
S'var/db/pkg/readline-6.1/+COMMENT'
p224
aS'89b16c21a203bee77529ce389b613f07'
p225
aa(lp226
S'var/db/pkg/readline-6.1/+BUILD_VERSION'
p227
aS'56788bbbb34fec9f1012e8ef102c1c94'
p228
aa(lp229
S'var/db/pkg/readline-6.1/+CONTENTS'
p230
aS'd2a60fbd1e33008556a7ce4d4db0830f'
p231
aa(lp232
S'var/db/pkg/readline-6.1/+SIZE_PKG'
p233
aS'897316929176464ebc9ad085f31e7284'
p234
aa(lp235
S'var/db/pkg/readline-6.1/+DEINSTALL'
p236
aS'8ab494b0484fc372471937b27008a94b'
p237
aa(lp238
S'var/db/pkg/readline-6.1/+DESC'
p239
aS'e0b21d25044349094eb649d35b6ce2ed'
p240
aa(lp241
S'var/db/pkg/readline-6.1/+INSTALL'
p242
aS'a98788eda5f4b411d948a55d4690739a'
p243
aa(lp244
S'var/db/pkg/readline-6.1/+BUILD_INFO'
p245
aS'382dc8a6cbf0885f25ca34dd588b9643'
p246
aa(lp247
S'var/db/pkg/xz-4.999.9betanb1/+SIZE_ALL'
p248
aS'897316929176464ebc9ad085f31e7284'
p249
aa(lp250
S'var/db/pkg/xz-4.999.9betanb1/+INSTALLED_INFO'
p251
aS'65d6bb0a6aa6f7d6e5551405db02d6f9'
p252
aa(lp253
S'var/db/pkg/xz-4.999.9betanb1/+COMMENT'
p254
aS'347d6fe8eaa4a69747ad61bba987da51'
p255
aa(lp256
S'var/db/pkg/xz-4.999.9betanb1/+BUILD_VERSION'
p257
aS'f29e1ba50a41793c839eccd3f8c7292f'
p258
aa(lp259
S'var/db/pkg/xz-4.999.9betanb1/+CONTENTS'
p260
aS'1730d63b7d5d52538cc686bf96e4b572'
p261
aa(lp262
S'var/db/pkg/xz-4.999.9betanb1/+SIZE_PKG'
p263
aS'897316929176464ebc9ad085f31e7284'
p264
aa(lp265
S'var/db/pkg/xz-4.999.9betanb1/+DESC'
p266
aS'9bb377d23626fcb7853a4a2d11ced07f'
p267
aa(lp268
S'var/db/pkg/xz-4.999.9betanb1/+BUILD_INFO'
p269
aS'4a22693c2a78557fc798881bcaee8e7a'
p270
aa(lp271
S'var/db/pkg/gettext-asprintf-0.14.6/+INFO_FILES'
p272
aS'eaf528ddb8c1ced950d00eabaf54518a'
p273
aa(lp274
S'var/db/pkg/gettext-asprintf-0.14.6/+SIZE_ALL'
p275
aS'897316929176464ebc9ad085f31e7284'
p276
aa(lp277
S'var/db/pkg/gettext-asprintf-0.14.6/+INSTALLED_INFO'
p278
aS'65d6bb0a6aa6f7d6e5551405db02d6f9'
p279
aa(lp280
S'var/db/pkg/gettext-asprintf-0.14.6/+COMMENT'
p281
aS'f49716039b2a64241299cacf2af2213c'
p282
aa(lp283
S'var/db/pkg/gettext-asprintf-0.14.6/+REQUIRED_BY'
p284
aS'680257f3d80b9157a567caef8d10ba91'
p285
aa(lp286
S'var/db/pkg/gettext-asprintf-0.14.6/+BUILD_VERSION'
p287
aS'f775e447f2cdfa0c6ef66d2a71203639'
p288
aa(lp289
S'var/db/pkg/gettext-asprintf-0.14.6/+CONTENTS'
p290
aS'ec217b93ff6741d7391ecb01e082cb4a'
p291
aa(lp292
S'var/db/pkg/gettext-asprintf-0.14.6/+SIZE_PKG'
p293
aS'897316929176464ebc9ad085f31e7284'
p294
aa(lp295
S'var/db/pkg/gettext-asprintf-0.14.6/+DEINSTALL'
p296
aS'a35fdfd45f6981dd2fa3f074747aebc6'
p297
aa(lp298
S'var/db/pkg/gettext-asprintf-0.14.6/+DESC'
p299
aS'07c27fe3d94b222aea095f25a267b2d4'
p300
aa(lp301
S'var/db/pkg/gettext-asprintf-0.14.6/+INSTALL'
p302
aS'5a36e24d6435450f1d29369a48512de9'
p303
aa(lp304
S'var/db/pkg/gettext-asprintf-0.14.6/+BUILD_INFO'
p305
aS'6f5ed2a1462563c0c7f6edb063312987'
p306
aa(lp307
S'var/db/pkg/libiconv-1.12nb1/+SIZE_ALL'
p308
aS'897316929176464ebc9ad085f31e7284'
p309
aa(lp310
S'var/db/pkg/libiconv-1.12nb1/+FILES'
p311
aS'f297e425ffe7fb0685e6f9180915b01a'
p312
aa(lp313
S'var/db/pkg/libiconv-1.12nb1/+INSTALLED_INFO'
p314
aS'65d6bb0a6aa6f7d6e5551405db02d6f9'
p315
aa(lp316
S'var/db/pkg/libiconv-1.12nb1/+COMMENT'
p317
aS'078fa388d61eb241a25c76f99fd8d143'
p318
aa(lp319
S'var/db/pkg/libiconv-1.12nb1/+REQUIRED_BY'
p320
aS'8d07f5f97d2c53e04293474954e22ad2'
p321
aa(lp322
S'var/db/pkg/libiconv-1.12nb1/+BUILD_VERSION'
p323
aS'53da2808b89055b2b95494a94406e8ab'
p324
aa(lp325
S'var/db/pkg/libiconv-1.12nb1/+CONTENTS'
p326
aS'cdc98e72b5a348b2d95b43ac0a144ad3'
p327
aa(lp328
S'var/db/pkg/libiconv-1.12nb1/+SIZE_PKG'
p329
aS'897316929176464ebc9ad085f31e7284'
p330
aa(lp331
S'var/db/pkg/libiconv-1.12nb1/+DEINSTALL'
p332
aS'892ee965717260a7c5409a282f95c188'
p333
aa(lp334
S'var/db/pkg/libiconv-1.12nb1/+DESC'
p335
aS'7d56f5c7504c77d2cb3d571983615657'
p336
aa(lp337
S'var/db/pkg/libiconv-1.12nb1/+INSTALL'
p338
aS'903addc8d795f1a7ab158df57332954d'
p339
aa(lp340
S'var/db/pkg/libiconv-1.12nb1/+BUILD_INFO'
p341
aS'0fd4154f4503e7a4e21a4cd37e86af93'
p342
aa(lp343
S'var/db/pkg/perl-5.10.1nb1/+SIZE_ALL'
p344
aS'897316929176464ebc9ad085f31e7284'
p345
aa(lp346
S'var/db/pkg/perl-5.10.1nb1/+COMMENT'
p347
aS'91089097a16f96576e1aa04d561046cf'
p348
aa(lp349
S'var/db/pkg/perl-5.10.1nb1/+REQUIRED_BY'
p350
aS'ec720e42e43e5fa25d93e4cef0bfd7de'
p351
aa(lp352
S'var/db/pkg/perl-5.10.1nb1/+BUILD_VERSION'
p353
aS'9905c6912ed5239fa2da447cb6250c8d'
p354
aa(lp355
S'var/db/pkg/perl-5.10.1nb1/+CONTENTS'
p356
aS'52956e3b2df2936c25f73f7b22b0e1fe'
p357
aa(lp358
S'var/db/pkg/perl-5.10.1nb1/+SIZE_PKG'
p359
aS'897316929176464ebc9ad085f31e7284'
p360
aa(lp361
S'var/db/pkg/perl-5.10.1nb1/+DEINSTALL'
p362
aS'07dbd7f62500e962bffd16206ec2e44f'
p363
aa(lp364
S'var/db/pkg/perl-5.10.1nb1/+DESC'
p365
aS'2c875c391dcc9bebaac543f665801cba'
p366
aa(lp367
S'var/db/pkg/perl-5.10.1nb1/+INSTALL'
p368
aS'5158d63cf00d4ea448afa88a4e5b6302'
p369
aa(lp370
S'var/db/pkg/perl-5.10.1nb1/+BUILD_INFO'
p371
aS'24d0c2a54bcbf12c95f9c05dbd735a9a'
p372
aa(lp373
S'var/db/pkg/autoconf-2.65nb1/+INFO_FILES'
p374
aS'092b763d5580264e66e18132b2a53f21'
p375
aa(lp376
S'var/db/pkg/autoconf-2.65nb1/+SIZE_ALL'
p377
aS'897316929176464ebc9ad085f31e7284'
p378
aa(lp379
S'var/db/pkg/autoconf-2.65nb1/+INSTALLED_INFO'
p380
aS'65d6bb0a6aa6f7d6e5551405db02d6f9'
p381
aa(lp382
S'var/db/pkg/autoconf-2.65nb1/+COMMENT'
p383
aS'bda15db277c3d1dc99eda5a102afbd08'
p384
aa(lp385
S'var/db/pkg/autoconf-2.65nb1/+REQUIRED_BY'
p386
aS'6c2a805717340ee76a2de966ab840ddd'
p387
aa(lp388
S'var/db/pkg/autoconf-2.65nb1/+BUILD_VERSION'
p389
aS'563e6b33b2297cccb8872b9bc3b1883c'
p390
aa(lp391
S'var/db/pkg/autoconf-2.65nb1/+CONTENTS'
p392
aS'28d621d590c1debf36509727b571047a'
p393
aa(lp394
S'var/db/pkg/autoconf-2.65nb1/+SIZE_PKG'
p395
aS'897316929176464ebc9ad085f31e7284'
p396
aa(lp397
S'var/db/pkg/autoconf-2.65nb1/+DEINSTALL'
p398
aS'7d1c580e02aebb3649531e6bf407a0b6'
p399
aa(lp400
S'var/db/pkg/autoconf-2.65nb1/+DESC'
p401
aS'17ce273ac2d988612ca21d71f01a0ebe'
p402
aa(lp403
S'var/db/pkg/autoconf-2.65nb1/+INSTALL'
p404
aS'2ad1e12b005179968a8f9adb781843ef'
p405
aa(lp406
S'var/db/pkg/autoconf-2.65nb1/+BUILD_INFO'
p407
aS'82707af1803dbbdd5503450f56b1ad49'
p408
aa(lp409
S'var/db/pkg/libxml2-2.7.7/+SIZE_ALL'
p410
aS'897316929176464ebc9ad085f31e7284'
p411
aa(lp412
S'var/db/pkg/libxml2-2.7.7/+INSTALLED_INFO'
p413
aS'65d6bb0a6aa6f7d6e5551405db02d6f9'
p414
aa(lp415
S'var/db/pkg/libxml2-2.7.7/+COMMENT'
p416
aS'1f4d430421d5e2cf7212a9906c0df770'
p417
aa(lp418
S'var/db/pkg/libxml2-2.7.7/+REQUIRED_BY'
p419
aS'f7bae4a224c4fb23b2c57cc9d21e90af'
p420
aa(lp421
S'var/db/pkg/libxml2-2.7.7/+BUILD_VERSION'
p422
aS'bba43563555e449f471cff1b099cf654'
p423
aa(lp424
S'var/db/pkg/libxml2-2.7.7/+CONTENTS'
p425
aS'5d4e7d19166593d6b49a48e27381a753'
p426
aa(lp427
S'var/db/pkg/libxml2-2.7.7/+SIZE_PKG'
p428
aS'897316929176464ebc9ad085f31e7284'
p429
aa(lp430
S'var/db/pkg/libxml2-2.7.7/+DESC'
p431
aS'd2bf4e90196eadf128bea274b1f9e5ee'
p432
aa(lp433
S'var/db/pkg/libxml2-2.7.7/+BUILD_INFO'
p434
aS'dae9fbc4abcb2a21713637575217d31c'
p435
aa(lp436
S'var/db/pkg/gettext-0.14.6nb1/+SIZE_ALL'
p437
aS'897316929176464ebc9ad085f31e7284'
p438
aa(lp439
S'var/db/pkg/gettext-0.14.6nb1/+COMMENT'
p440
aS'742dcaf04b105ab4fd2f22764d2c2495'
p441
aa(lp442
S'var/db/pkg/gettext-0.14.6nb1/+BUILD_VERSION'
p443
aS'c17c0fb1595af6c4b99858ca741cba96'
p444
aa(lp445
S'var/db/pkg/gettext-0.14.6nb1/+CONTENTS'
p446
aS'1862be0b36220bb1d4c724719fb41d24'
p447
aa(lp448
S'var/db/pkg/gettext-0.14.6nb1/+SIZE_PKG'
p449
aS'897316929176464ebc9ad085f31e7284'
p450
aa(lp451
S'var/db/pkg/gettext-0.14.6nb1/+DESC'
p452
aS'cf3a268f95087c271ca31e94b9f3f06f'
p453
aa(lp454
S'var/db/pkg/gettext-0.14.6nb1/+BUILD_INFO'
p455
aS'df3e3bb97483cad4d3a05658d21ef92a'
p456
aa(lp457
S'var/db/pkg/libyaml-0.1.2/+SIZE_ALL'
p458
aS'897316929176464ebc9ad085f31e7284'
p459
aa(lp460
S'var/db/pkg/libyaml-0.1.2/+INSTALLED_INFO'
p461
aS'65d6bb0a6aa6f7d6e5551405db02d6f9'
p462
aa(lp463
S'var/db/pkg/libyaml-0.1.2/+COMMENT'
p464
aS'ef5ee4f17b062f28f90b6674ed5ba252'
p465
aa(lp466
S'var/db/pkg/libyaml-0.1.2/+REQUIRED_BY'
p467
aS'6bf1e9559d99134c81c4a515dd2e6ead'
p468
aa(lp469
S'var/db/pkg/libyaml-0.1.2/+BUILD_VERSION'
p470
aS'e24c22642b61cfcc6e73d1f4a3a2b55b'
p471
aa(lp472
S'var/db/pkg/libyaml-0.1.2/+CONTENTS'
p473
aS'98a6ffc01550f697ae3ed955cb330f1d'
p474
aa(lp475
S'var/db/pkg/libyaml-0.1.2/+SIZE_PKG'
p476
aS'897316929176464ebc9ad085f31e7284'
p477
aa(lp478
S'var/db/pkg/libyaml-0.1.2/+DESC'
p479
aS'966078264a2186fa70dc9043b30171e9'
p480
aa(lp481
S'var/db/pkg/libyaml-0.1.2/+BUILD_INFO'
p482
aS'8616422348bee64791fece6e8c110ebe'
p483
aa(lp484
S'var/db/pkg/libgcrypt-1.4.5/+INFO_FILES'
p485
aS'1e2709885249591e0322d5acfbae9977'
p486
aa(lp487
S'var/db/pkg/libgcrypt-1.4.5/+SIZE_ALL'
p488
aS'897316929176464ebc9ad085f31e7284'
p489
aa(lp490
S'var/db/pkg/libgcrypt-1.4.5/+INSTALLED_INFO'
p491
aS'65d6bb0a6aa6f7d6e5551405db02d6f9'
p492
aa(lp493
S'var/db/pkg/libgcrypt-1.4.5/+COMMENT'
p494
aS'501e4603a474335baf75934a83f3ef45'
p495
aa(lp496
S'var/db/pkg/libgcrypt-1.4.5/+REQUIRED_BY'
p497
aS'30f446fd7fea5ff10c753e5037bc7076'
p498
aa(lp499
S'var/db/pkg/libgcrypt-1.4.5/+BUILD_VERSION'
p500
aS'd49ab185951fd4bad9325dca915a2a3e'
p501
aa(lp502
S'var/db/pkg/libgcrypt-1.4.5/+CONTENTS'
p503
aS'f6989bc7eaf0b433e775dc4f97a0771a'
p504
aa(lp505
S'var/db/pkg/libgcrypt-1.4.5/+SIZE_PKG'
p506
aS'897316929176464ebc9ad085f31e7284'
p507
aa(lp508
S'var/db/pkg/libgcrypt-1.4.5/+DEINSTALL'
p509
aS'ff35cc6d4eed1b7cf536ad1e80b26002'
p510
aa(lp511
S'var/db/pkg/libgcrypt-1.4.5/+DESC'
p512
aS'2c553de5b5b8464b16b6b8942d8c646f'
p513
aa(lp514
S'var/db/pkg/libgcrypt-1.4.5/+INSTALL'
p515
aS'8264d80b76f64dfa8484300f17cbc33a'
p516
aa(lp517
S'var/db/pkg/libgcrypt-1.4.5/+BUILD_INFO'
p518
aS'dc71ec69273afe78554ce3a689c7460d'
p519
aa(lp520
S'var/db/pkg/f2c-20090411nb4/+SIZE_ALL'
p521
aS'897316929176464ebc9ad085f31e7284'
p522
aa(lp523
S'var/db/pkg/f2c-20090411nb4/+INSTALLED_INFO'
p524
aS'65d6bb0a6aa6f7d6e5551405db02d6f9'
p525
aa(lp526
S'var/db/pkg/f2c-20090411nb4/+COMMENT'
p527
aS'44b894da421a7061cfa3cab17f9c0620'
p528
aa(lp529
S'var/db/pkg/f2c-20090411nb4/+BUILD_VERSION'
p530
aS'a054e6268226157df6ccb9ceabd214d4'
p531
aa(lp532
S'var/db/pkg/f2c-20090411nb4/+CONTENTS'
p533
aS'139560fad57b8bc102d5b04c6aa27ad7'
p534
aa(lp535
S'var/db/pkg/f2c-20090411nb4/+SIZE_PKG'
p536
aS'897316929176464ebc9ad085f31e7284'
p537
aa(lp538
S'var/db/pkg/f2c-20090411nb4/+DESC'
p539
aS'bacd9e9b5cc96acd5096de88f2651705'
p540
aa(lp541
S'var/db/pkg/f2c-20090411nb4/+BUILD_INFO'
p542
aS'ca478d769160a6100a04cd846a47490f'
p543
aa(lp544
S'var/db/pkg/lv-4.51nb1/+SIZE_ALL'
p545
aS'897316929176464ebc9ad085f31e7284'
p546
aa(lp547
S'var/db/pkg/lv-4.51nb1/+COMMENT'
p548
aS'9b0e0cdfb795781b5d2d59aa1cfde57e'
p549
aa(lp550
S'var/db/pkg/lv-4.51nb1/+BUILD_VERSION'
p551
aS'eee288fe4624bf7e91737f7476565315'
p552
aa(lp553
S'var/db/pkg/lv-4.51nb1/+CONTENTS'
p554
aS'64fbffc73a24c8fe2e816d49cc090123'
p555
aa(lp556
S'var/db/pkg/lv-4.51nb1/+SIZE_PKG'
p557
aS'897316929176464ebc9ad085f31e7284'
p558
aa(lp559
S'var/db/pkg/lv-4.51nb1/+DESC'
p560
aS'bbae2e234a212db501c30e662a660561'
p561
aa(lp562
S'var/db/pkg/lv-4.51nb1/+BUILD_INFO'
p563
aS'1ea3a9245ec625df29e56e074e56dc54'
p564
aa(lp565
S'var/db/pkg/py26-yaml-3.08/+SIZE_ALL'
p566
aS'897316929176464ebc9ad085f31e7284'
p567
aa(lp568
S'var/db/pkg/py26-yaml-3.08/+COMMENT'
p569
aS'7ca5f4abaff1a602fda0f525af96cb33'
p570
aa(lp571
S'var/db/pkg/py26-yaml-3.08/+BUILD_VERSION'
p572
aS'af5ea608cf7c1f4f51e8fb0f4284243b'
p573
aa(lp574
S'var/db/pkg/py26-yaml-3.08/+CONTENTS'
p575
aS'15afd5117c6df2f0d12181328c589bc2'
p576
aa(lp577
S'var/db/pkg/py26-yaml-3.08/+SIZE_PKG'
p578
aS'897316929176464ebc9ad085f31e7284'
p579
aa(lp580
S'var/db/pkg/py26-yaml-3.08/+DESC'
p581
aS'b95591e98bf9f6dbe9c0576c32b15bd7'
p582
aa(lp583
S'var/db/pkg/py26-yaml-3.08/+BUILD_INFO'
p584
aS'1296e6bc15905966ccdf3c83ab56b0a7'
p585
aa(lp586
S'var/db/pkg/digest-20080510/+SIZE_ALL'
p587
aS'897316929176464ebc9ad085f31e7284'
p588
aa(lp589
S'var/db/pkg/digest-20080510/+INSTALLED_INFO'
p590
aS'65d6bb0a6aa6f7d6e5551405db02d6f9'
p591
aa(lp592
S'var/db/pkg/digest-20080510/+COMMENT'
p593
aS'30abe8af7e529e730a9e560794f3b4b3'
p594
aa(lp595
S'var/db/pkg/digest-20080510/+BUILD_VERSION'
p596
aS'216ed8c09e82f01f12c7937c329442e5'
p597
aa(lp598
S'var/db/pkg/digest-20080510/+CONTENTS'
p599
aS'0b57a4f26cd5efa95e6690d319c7553b'
p600
aa(lp601
S'var/db/pkg/digest-20080510/+SIZE_PKG'
p602
aS'897316929176464ebc9ad085f31e7284'
p603
aa(lp604
S'var/db/pkg/digest-20080510/+DESC'
p605
aS'cb7e4e8225071bb06f9e0fa5972c6216'
p606
aa(lp607
S'var/db/pkg/digest-20080510/+BUILD_INFO'
p608
aS'a32d0e1c7b4e0ea4134312b262bf10ac'
p609
aa(lp610
S'var/db/pkg/cppunit-1.10.2nb11/+SIZE_ALL'
p611
aS'897316929176464ebc9ad085f31e7284'
p612
aa(lp613
S'var/db/pkg/cppunit-1.10.2nb11/+COMMENT'
p614
aS'a894d0ce8227f92568e3a7438ef4628f'
p615
aa(lp616
S'var/db/pkg/cppunit-1.10.2nb11/+BUILD_VERSION'
p617
aS'd24ea6db1f16cc88c298e75339d98eee'
p618
aa(lp619
S'var/db/pkg/cppunit-1.10.2nb11/+CONTENTS'
p620
aS'd0a6577016e6dd0d64c66b2f8e2886b6'
p621
aa(lp622
S'var/db/pkg/cppunit-1.10.2nb11/+SIZE_PKG'
p623
aS'897316929176464ebc9ad085f31e7284'
p624
aa(lp625
S'var/db/pkg/cppunit-1.10.2nb11/+DESC'
p626
aS'3459737951ce92a22b92136350f38157'
p627
aa(lp628
S'var/db/pkg/cppunit-1.10.2nb11/+BUILD_INFO'
p629
aS'9e45b685a5ae34f34cbdf67d7ce6d6da'
p630
aa(lp631
S'var/db/pkg/mktemp-1.6/+SIZE_ALL'
p632
aS'897316929176464ebc9ad085f31e7284'
p633
aa(lp634
S'var/db/pkg/mktemp-1.6/+INSTALLED_INFO'
p635
aS'65d6bb0a6aa6f7d6e5551405db02d6f9'
p636
aa(lp637
S'var/db/pkg/mktemp-1.6/+COMMENT'
p638
aS'a2bf782a617d9fa94bb3144b37dacf44'
p639
aa(lp640
S'var/db/pkg/mktemp-1.6/+BUILD_VERSION'
p641
aS'6d0b114c28d1a44762805550f5605a82'
p642
aa(lp643
S'var/db/pkg/mktemp-1.6/+CONTENTS'
p644
aS'dcd0ce89506c72e62a19a7a6118e7a2e'
p645
aa(lp646
S'var/db/pkg/mktemp-1.6/+SIZE_PKG'
p647
aS'897316929176464ebc9ad085f31e7284'
p648
aa(lp649
S'var/db/pkg/mktemp-1.6/+DESC'
p650
aS'8868b547425ceae0de1317a3db12e53d'
p651
aa(lp652
S'var/db/pkg/mktemp-1.6/+BUILD_INFO'
p653
aS'f1f7c194d87793926034842c21d0127d'
p654
aa(lp655
S'var/db/pkg/swig-1.3.36nb1/+SIZE_ALL'
p656
aS'897316929176464ebc9ad085f31e7284'
p657
aa(lp658
S'var/db/pkg/swig-1.3.36nb1/+COMMENT'
p659
aS'1c15bd346c6b09cd473ba616e2a35b7e'
p660
aa(lp661
S'var/db/pkg/swig-1.3.36nb1/+BUILD_VERSION'
p662
aS'ee0426ddb6aaa95279e8db3535200015'
p663
aa(lp664
S'var/db/pkg/swig-1.3.36nb1/+CONTENTS'
p665
aS'd3c407d2cd06a9b6c3d6d9b5aafcfbbe'
p666
aa(lp667
S'var/db/pkg/swig-1.3.36nb1/+SIZE_PKG'
p668
aS'897316929176464ebc9ad085f31e7284'
p669
aa(lp670
S'var/db/pkg/swig-1.3.36nb1/+DESC'
p671
aS'5b125793cb5ecceb864ae7057a9f2321'
p672
aa(lp673
S'var/db/pkg/swig-1.3.36nb1/+BUILD_INFO'
p674
aS'7de195ebfe0503b263e3ce67218303b4'
p675
aa(lp676
S'var/db/pkg/libslang-1.4.9nb7/+SIZE_ALL'
p677
aS'897316929176464ebc9ad085f31e7284'
p678
aa(lp679
S'var/db/pkg/libslang-1.4.9nb7/+INSTALLED_INFO'
p680
aS'65d6bb0a6aa6f7d6e5551405db02d6f9'
p681
aa(lp682
S'var/db/pkg/libslang-1.4.9nb7/+COMMENT'
p683
aS'ced845dcc79d74763e6ab81f35e91cd6'
p684
aa(lp685
S'var/db/pkg/libslang-1.4.9nb7/+REQUIRED_BY'
p686
aS'a28ee5efedb5bffd8eb1fb2eceb6656f'
p687
aa(lp688
S'var/db/pkg/libslang-1.4.9nb7/+BUILD_VERSION'
p689
aS'e5740367ed91d54fa228537103c48005'
p690
aa(lp691
S'var/db/pkg/libslang-1.4.9nb7/+CONTENTS'
p692
aS'6326e0d0719974fe98e442da16c2b06b'
p693
aa(lp694
S'var/db/pkg/libslang-1.4.9nb7/+SIZE_PKG'
p695
aS'897316929176464ebc9ad085f31e7284'
p696
aa(lp697
S'var/db/pkg/libslang-1.4.9nb7/+DESC'
p698
aS'38ed5d7fe176ee3a110445f127cd03df'
p699
aa(lp700
S'var/db/pkg/libslang-1.4.9nb7/+BUILD_INFO'
p701
aS'bf7e57dbb9729358c9f40b4d3519239c'
p702
aa(lp703
S'var/db/pkg/pkg_install-info-4.5nb3/+SIZE_ALL'
p704
aS'897316929176464ebc9ad085f31e7284'
p705
aa(lp706
S'var/db/pkg/pkg_install-info-4.5nb3/+INSTALLED_INFO'
p707
aS'65d6bb0a6aa6f7d6e5551405db02d6f9'
p708
aa(lp709
S'var/db/pkg/pkg_install-info-4.5nb3/+COMMENT'
p710
aS'0302773bfe1e049c748b2c5affbe023d'
p711
aa(lp712
S'var/db/pkg/pkg_install-info-4.5nb3/+REQUIRED_BY'
p713
aS'72e492bba549db9fe7a6c5bc6cef8f6e'
p714
aa(lp715
S'var/db/pkg/pkg_install-info-4.5nb3/+BUILD_VERSION'
p716
aS'ab836511e504779ce2a9f2673cce6571'
p717
aa(lp718
S'var/db/pkg/pkg_install-info-4.5nb3/+CONTENTS'
p719
aS'3964b838509eb6330997b9bd132eb5e8'
p720
aa(lp721
S'var/db/pkg/pkg_install-info-4.5nb3/+SIZE_PKG'
p722
aS'897316929176464ebc9ad085f31e7284'
p723
aa(lp724
S'var/db/pkg/pkg_install-info-4.5nb3/+DESC'
p725
aS'd09d2c57a751be9c7a4a0b47f43d4e58'
p726
aa(lp727
S'var/db/pkg/pkg_install-info-4.5nb3/+BUILD_INFO'
p728
aS'6015259e0517ad39ce641866d4f12b19'
p729
aa(lp730
S'var/db/pkg/libtool-info-2.2.6b/+INFO_FILES'
p731
aS'edd30fca2a0b41c002bca0b75fc6b3b6'
p732
aa(lp733
S'var/db/pkg/libtool-info-2.2.6b/+SIZE_ALL'
p734
aS'897316929176464ebc9ad085f31e7284'
p735
aa(lp736
S'var/db/pkg/libtool-info-2.2.6b/+INSTALLED_INFO'
p737
aS'65d6bb0a6aa6f7d6e5551405db02d6f9'
p738
aa(lp739
S'var/db/pkg/libtool-info-2.2.6b/+COMMENT'
p740
aS'd01f43952e760b3ca4344919158beefc'
p741
aa(lp742
S'var/db/pkg/libtool-info-2.2.6b/+REQUIRED_BY'
p743
aS'833bf362ae00926b3d7f76612aff6610'
p744
aa(lp745
S'var/db/pkg/libtool-info-2.2.6b/+BUILD_VERSION'
p746
aS'bb4df65465d406a8266d9b9cc2133d6d'
p747
aa(lp748
S'var/db/pkg/libtool-info-2.2.6b/+CONTENTS'
p749
aS'd3f015550532a0d74af9aa7d5af100e3'
p750
aa(lp751
S'var/db/pkg/libtool-info-2.2.6b/+SIZE_PKG'
p752
aS'897316929176464ebc9ad085f31e7284'
p753
aa(lp754
S'var/db/pkg/libtool-info-2.2.6b/+DEINSTALL'
p755
aS'94d894004230c3f939d1ec025e0fda58'
p756
aa(lp757
S'var/db/pkg/libtool-info-2.2.6b/+DESC'
p758
aS'68fd2553e40d3c4f900df09feb6e22fd'
p759
aa(lp760
S'var/db/pkg/libtool-info-2.2.6b/+INSTALL'
p761
aS'3529a9dd144dd088a7172b0baf708297'
p762
aa(lp763
S'var/db/pkg/libtool-info-2.2.6b/+BUILD_INFO'
p764
aS'40b5bb4b4a79dd377b762bbd5b6ff2ac'
p765
aa(lp766
S'var/db/pkg/docbook-xml-4.5/+SIZE_ALL'
p767
aS'897316929176464ebc9ad085f31e7284'
p768
aa(lp769
S'var/db/pkg/docbook-xml-4.5/+INSTALLED_INFO'
p770
aS'65d6bb0a6aa6f7d6e5551405db02d6f9'
p771
aa(lp772
S'var/db/pkg/docbook-xml-4.5/+COMMENT'
p773
aS'29c65db9f034e8d471926a4821357ed3'
p774
aa(lp775
S'var/db/pkg/docbook-xml-4.5/+REQUIRED_BY'
p776
aS'14741c6318ecbc3bfac0349e848e0cad'
p777
aa(lp778
S'var/db/pkg/docbook-xml-4.5/+BUILD_VERSION'
p779
aS'61459ddbddb9a97dd60115d73b5f4e00'
p780
aa(lp781
S'var/db/pkg/docbook-xml-4.5/+CONTENTS'
p782
aS'637928b95231e3b050d4745e15f263bd'
p783
aa(lp784
S'var/db/pkg/docbook-xml-4.5/+SIZE_PKG'
p785
aS'897316929176464ebc9ad085f31e7284'
p786
aa(lp787
S'var/db/pkg/docbook-xml-4.5/+DEINSTALL'
p788
aS'52a82d66eaa2e0d090d69c9eec46d25e'
p789
aa(lp790
S'var/db/pkg/docbook-xml-4.5/+DESC'
p791
aS'5605bac309e5b33f5de1e08930d22823'
p792
aa(lp793
S'var/db/pkg/docbook-xml-4.5/+INSTALL'
p794
aS'4b145c29b3c15ebf45b7ba24f4e58724'
p795
aa(lp796
S'var/db/pkg/docbook-xml-4.5/+BUILD_INFO'
p797
aS'f4f6021518351ce57f451cba69c45142'
p798
aa(lp799
S'var/db/pkg/getopt-1.1.4/+SIZE_ALL'
p800
aS'897316929176464ebc9ad085f31e7284'
p801
aa(lp802
S'var/db/pkg/getopt-1.1.4/+INSTALLED_INFO'
p803
aS'65d6bb0a6aa6f7d6e5551405db02d6f9'
p804
aa(lp805
S'var/db/pkg/getopt-1.1.4/+COMMENT'
p806
aS'0642fca66b199af05638e6807c521cdd'
p807
aa(lp808
S'var/db/pkg/getopt-1.1.4/+REQUIRED_BY'
p809
aS'f9e4cd4dba24bcd4a5bbad8edb447833'
p810
aa(lp811
S'var/db/pkg/getopt-1.1.4/+BUILD_VERSION'
p812
aS'09ff0ef1dae0db5ca114972a9d8640b3'
p813
aa(lp814
S'var/db/pkg/getopt-1.1.4/+CONTENTS'
p815
aS'c8c484e4c546d03e7fb6e61d75846bef'
p816
aa(lp817
S'var/db/pkg/getopt-1.1.4/+SIZE_PKG'
p818
aS'897316929176464ebc9ad085f31e7284'
p819
aa(lp820
S'var/db/pkg/getopt-1.1.4/+DESC'
p821
aS'83d5687bf636e9195b7a436b87169fc5'
p822
aa(lp823
S'var/db/pkg/getopt-1.1.4/+BUILD_INFO'
p824
aS'29c22208b629e311d21513ac11f2e7b2'
p825
aa(lp826
S'var/db/pkg/install-sh-20070712/+SIZE_ALL'
p827
aS'897316929176464ebc9ad085f31e7284'
p828
aa(lp829
S'var/db/pkg/install-sh-20070712/+COMMENT'
p830
aS'3c6d436dffe805621a4a197384a4c3fe'
p831
aa(lp832
S'var/db/pkg/install-sh-20070712/+BUILD_VERSION'
p833
aS'da6a0bf04d552d69237830a5e6783df0'
p834
aa(lp835
S'var/db/pkg/install-sh-20070712/+CONTENTS'
p836
aS'a95b03904735534628aab7bc340b909e'
p837
aa(lp838
S'var/db/pkg/install-sh-20070712/+SIZE_PKG'
p839
aS'897316929176464ebc9ad085f31e7284'
p840
aa(lp841
S'var/db/pkg/install-sh-20070712/+DESC'
p842
aS'a0230dc989ac0a33bcacf343a7544544'
p843
aa(lp844
S'var/db/pkg/install-sh-20070712/+BUILD_INFO'
p845
aS'262beb4f121f15172d63f2579bf9ba90'
p846
aa(lp847
S'var/db/pkg/install-sh-20070712/+PRESERVE'
p848
aS'bd6fcc34e919d3061bf2842b12a642b0'
p849
aa(lp850
S'var/db/pkg/png-1.2.43/+SIZE_ALL'
p851
aS'897316929176464ebc9ad085f31e7284'
p852
aa(lp853
S'var/db/pkg/png-1.2.43/+COMMENT'
p854
aS'5a6656b730c7966b2143bb1740b93da7'
p855
aa(lp856
S'var/db/pkg/png-1.2.43/+BUILD_VERSION'
p857
aS'c47069da5fdc26dd129d69ed4c3b07aa'
p858
aa(lp859
S'var/db/pkg/png-1.2.43/+CONTENTS'
p860
aS'1a49edee478bcc6534c5bde07b320fab'
p861
aa(lp862
S'var/db/pkg/png-1.2.43/+SIZE_PKG'
p863
aS'897316929176464ebc9ad085f31e7284'
p864
aa(lp865
S'var/db/pkg/png-1.2.43/+DESC'
p866
aS'5e5051a46ee398066787650034f7749f'
p867
aa(lp868
S'var/db/pkg/png-1.2.43/+BUILD_INFO'
p869
aS'055cda1663204f1792c0ef5beabc9f01'
p870
aa(lp871
S'var/db/pkg/gmp-5.0.1/+INFO_FILES'
p872
aS'4334f7e93df141e704bdd6ce60b3b4d0'
p873
aa(lp874
S'var/db/pkg/gmp-5.0.1/+SIZE_ALL'
p875
aS'897316929176464ebc9ad085f31e7284'
p876
aa(lp877
S'var/db/pkg/gmp-5.0.1/+COMMENT'
p878
aS'1469b84f664589f3593712bdb71d2e36'
p879
aa(lp880
S'var/db/pkg/gmp-5.0.1/+REQUIRED_BY'
p881
aS'6dd36a87315be470296c5722acc38c3b'
p882
aa(lp883
S'var/db/pkg/gmp-5.0.1/+BUILD_VERSION'
p884
aS'3c4fe4834552a7e835f31f91a3c5408a'
p885
aa(lp886
S'var/db/pkg/gmp-5.0.1/+CONTENTS'
p887
aS'72d7fb053529bf3555225d08a7540310'
p888
aa(lp889
S'var/db/pkg/gmp-5.0.1/+SIZE_PKG'
p890
aS'897316929176464ebc9ad085f31e7284'
p891
aa(lp892
S'var/db/pkg/gmp-5.0.1/+DEINSTALL'
p893
aS'06c246060d4e0fe7e77beee8c96e4739'
p894
aa(lp895
S'var/db/pkg/gmp-5.0.1/+DESC'
p896
aS'bf574182747ab6a77265ecc122f575e2'
p897
aa(lp898
S'var/db/pkg/gmp-5.0.1/+INSTALL'
p899
aS'490a8fb7b0891378b08bc475e4641110'
p900
aa(lp901
S'var/db/pkg/gmp-5.0.1/+BUILD_INFO'
p902
aS'c9a6005e6adc3722074b5bc6238a3934'
p903
aa(lp904
S'var/db/pkg/libtool-base-2.2.6bnb4/+SIZE_ALL'
p905
aS'897316929176464ebc9ad085f31e7284'
p906
aa(lp907
S'var/db/pkg/libtool-base-2.2.6bnb4/+INSTALLED_INFO'
p908
aS'65d6bb0a6aa6f7d6e5551405db02d6f9'
p909
aa(lp910
S'var/db/pkg/libtool-base-2.2.6bnb4/+COMMENT'
p911
aS'45429690465318663229d2fb52e2c52d'
p912
aa(lp913
S'var/db/pkg/libtool-base-2.2.6bnb4/+REQUIRED_BY'
p914
aS'833bf362ae00926b3d7f76612aff6610'
p915
aa(lp916
S'var/db/pkg/libtool-base-2.2.6bnb4/+BUILD_VERSION'
p917
aS'a315d4ffc02a80351c9d41aadd16379c'
p918
aa(lp919
S'var/db/pkg/libtool-base-2.2.6bnb4/+CONTENTS'
p920
aS'75218aa0d967a9072ffffaff04959114'
p921
aa(lp922
S'var/db/pkg/libtool-base-2.2.6bnb4/+SIZE_PKG'
p923
aS'897316929176464ebc9ad085f31e7284'
p924
aa(lp925
S'var/db/pkg/libtool-base-2.2.6bnb4/+DESC'
p926
aS'5a7282922acc54973eba467d60c8cc95'
p927
aa(lp928
S'var/db/pkg/libtool-base-2.2.6bnb4/+BUILD_INFO'
p929
aS'45e44ceaf0a781cd89a03a930aa17b28'
p930
aa(lp931
S'var/db/pkg/jpeg-8a/+SIZE_ALL'
p932
aS'897316929176464ebc9ad085f31e7284'
p933
aa(lp934
S'var/db/pkg/jpeg-8a/+COMMENT'
p935
aS'f8829c11628587afe203b2175df82ac5'
p936
aa(lp937
S'var/db/pkg/jpeg-8a/+BUILD_VERSION'
p938
aS'efe2088023196b428a68b6f28592efe5'
p939
aa(lp940
S'var/db/pkg/jpeg-8a/+CONTENTS'
p941
aS'8920e9bb107fb1ca3f7a9b63e9b33cdf'
p942
aa(lp943
S'var/db/pkg/jpeg-8a/+SIZE_PKG'
p944
aS'897316929176464ebc9ad085f31e7284'
p945
aa(lp946
S'var/db/pkg/jpeg-8a/+DESC'
p947
aS'9f55d15da8c0fd7a4fafb9b7078404e3'
p948
aa(lp949
S'var/db/pkg/jpeg-8a/+BUILD_INFO'
p950
aS'e9782b5dc8631e1813ef1c9b6d05b618'
p951
aa(lp952
S'var/db/pkg/libtool-2.2.6b/+SIZE_ALL'
p953
aS'897316929176464ebc9ad085f31e7284'
p954
aa(lp955
S'var/db/pkg/libtool-2.2.6b/+COMMENT'
p956
aS'07e73ea5bdb80614e69fb961f7655b9f'
p957
aa(lp958
S'var/db/pkg/libtool-2.2.6b/+BUILD_VERSION'
p959
aS'cd58a90e3d2185353d16848b79a62dbd'
p960
aa(lp961
S'var/db/pkg/libtool-2.2.6b/+CONTENTS'
p962
aS'c4ca3e0f48c997db4be80fc0749009a7'
p963
aa(lp964
S'var/db/pkg/libtool-2.2.6b/+SIZE_PKG'
p965
aS'897316929176464ebc9ad085f31e7284'
p966
aa(lp967
S'var/db/pkg/libtool-2.2.6b/+DESC'
p968
aS'00cc73c313582eea7eb18ff2669b4167'
p969
aa(lp970
S'var/db/pkg/libtool-2.2.6b/+BUILD_INFO'
p971
aS'f2f7bd9032ff0323d70dfcde92641fe1'
p972
aa(lp973
S'var/db/pkg/libffi-3.0.9/+INFO_FILES'
p974
aS'81f8c0906ca5d7cee6cf12070aade8e5'
p975
aa(lp976
S'var/db/pkg/libffi-3.0.9/+SIZE_ALL'
p977
aS'897316929176464ebc9ad085f31e7284'
p978
aa(lp979
S'var/db/pkg/libffi-3.0.9/+INSTALLED_INFO'
p980
aS'65d6bb0a6aa6f7d6e5551405db02d6f9'
p981
aa(lp982
S'var/db/pkg/libffi-3.0.9/+COMMENT'
p983
aS'b662c33bee2615c2b3248b48a94d764f'
p984
aa(lp985
S'var/db/pkg/libffi-3.0.9/+REQUIRED_BY'
p986
aS'78dd801fe2f94859e281b8557d96b9f7'
p987
aa(lp988
S'var/db/pkg/libffi-3.0.9/+BUILD_VERSION'
p989
aS'ba765877c64c6cb3606d156651c3080b'
p990
aa(lp991
S'var/db/pkg/libffi-3.0.9/+CONTENTS'
p992
aS'3631e2cf1b028a31a59d75ee3933a623'
p993
aa(lp994
S'var/db/pkg/libffi-3.0.9/+SIZE_PKG'
p995
aS'897316929176464ebc9ad085f31e7284'
p996
aa(lp997
S'var/db/pkg/libffi-3.0.9/+DEINSTALL'
p998
aS'9f22dd4b2e2bc2b8a3caffa87b5fd6e6'
p999
aa(lp1000
S'var/db/pkg/libffi-3.0.9/+DESC'
p1001
aS'2dd16251397c72b6690222104f8a95c7'
p1002
aa(lp1003
S'var/db/pkg/libffi-3.0.9/+INSTALL'
p1004
aS'38958ced3c0538edf90a6c2e3b864360'
p1005
aa(lp1006
S'var/db/pkg/libffi-3.0.9/+BUILD_INFO'
p1007
aS'9b0f0349d68de05c793e8c08983f6188'
p1008
aa(lp1009
S'var/db/pkg/nawk-20050424nb3/+SIZE_ALL'
p1010
aS'897316929176464ebc9ad085f31e7284'
p1011
aa(lp1012
S'var/db/pkg/nawk-20050424nb3/+COMMENT'
p1013
aS'd7494c11b44c11d2ba22da9d4c2a4f56'
p1014
aa(lp1015
S'var/db/pkg/nawk-20050424nb3/+BUILD_VERSION'
p1016
aS'b12e84b15039f693595d6feec1abe86e'
p1017
aa(lp1018
S'var/db/pkg/nawk-20050424nb3/+CONTENTS'
p1019
aS'f4c95d0ae721382bfe3f42c56f92c387'
p1020
aa(lp1021
S'var/db/pkg/nawk-20050424nb3/+SIZE_PKG'
p1022
aS'897316929176464ebc9ad085f31e7284'
p1023
aa(lp1024
S'var/db/pkg/nawk-20050424nb3/+DESC'
p1025
aS'0b1a271ba7a3f21ba87a4810b23abeb0'
p1026
aa(lp1027
S'var/db/pkg/nawk-20050424nb3/+BUILD_INFO'
p1028
aS'4fbe86847a6a008d813a6c7d0afc7d16'
p1029
aa(lp1030
S'var/db/pkg/nawk-20050424nb3/+PRESERVE'
p1031
aS'bf9b4a6dae94bcfe5429ad8bf1916bbc'
p1032
aa(lp1033
S'var/db/pkg/libxslt-1.1.26/+SIZE_ALL'
p1034
aS'897316929176464ebc9ad085f31e7284'
p1035
aa(lp1036
S'var/db/pkg/libxslt-1.1.26/+INSTALLED_INFO'
p1037
aS'65d6bb0a6aa6f7d6e5551405db02d6f9'
p1038
aa(lp1039
S'var/db/pkg/libxslt-1.1.26/+COMMENT'
p1040
aS'3ca70aaacffe1513e03063feaea68f3d'
p1041
aa(lp1042
S'var/db/pkg/libxslt-1.1.26/+REQUIRED_BY'
p1043
aS'f9e4cd4dba24bcd4a5bbad8edb447833'
p1044
aa(lp1045
S'var/db/pkg/libxslt-1.1.26/+BUILD_VERSION'
p1046
aS'cde80e2d80bbff4c274face03d0f90b8'
p1047
aa(lp1048
S'var/db/pkg/libxslt-1.1.26/+CONTENTS'
p1049
aS'934092dee981569874ea9a74166e0051'
p1050
aa(lp1051
S'var/db/pkg/libxslt-1.1.26/+SIZE_PKG'
p1052
aS'897316929176464ebc9ad085f31e7284'
p1053
aa(lp1054
S'var/db/pkg/libxslt-1.1.26/+DESC'
p1055
aS'9900c5410e22ba1aa2a015fe0245dd03'
p1056
aa(lp1057
S'var/db/pkg/libxslt-1.1.26/+BUILD_INFO'
p1058
aS'b449918ec9100dc8a4d145bec02f1a6f'
p1059
aa(lp1060
S'var/db/pkg/m4-1.4.14/+INFO_FILES'
p1061
aS'ad834d78654b62755128e7e38a5427e2'
p1062
aa(lp1063
S'var/db/pkg/m4-1.4.14/+SIZE_ALL'
p1064
aS'897316929176464ebc9ad085f31e7284'
p1065
aa(lp1066
S'var/db/pkg/m4-1.4.14/+INSTALLED_INFO'
p1067
aS'65d6bb0a6aa6f7d6e5551405db02d6f9'
p1068
aa(lp1069
S'var/db/pkg/m4-1.4.14/+COMMENT'
p1070
aS'e6cca5dfd18f7f695ff1d367f8593cd2'
p1071
aa(lp1072
S'var/db/pkg/m4-1.4.14/+REQUIRED_BY'
p1073
aS'4d6c887c955e2ab3f4dfa50b7d4630cd'
p1074
aa(lp1075
S'var/db/pkg/m4-1.4.14/+BUILD_VERSION'
p1076
aS'fc3848411dd8c9a4ff2bc58f0915f2ef'
p1077
aa(lp1078
S'var/db/pkg/m4-1.4.14/+CONTENTS'
p1079
aS'a3aaa6d6ee20bf355d7cd855d2ad32d9'
p1080
aa(lp1081
S'var/db/pkg/m4-1.4.14/+SIZE_PKG'
p1082
aS'897316929176464ebc9ad085f31e7284'
p1083
aa(lp1084
S'var/db/pkg/m4-1.4.14/+DEINSTALL'
p1085
aS'e3ed45ff4d86af37c4d513f202792cc4'
p1086
aa(lp1087
S'var/db/pkg/m4-1.4.14/+DESC'
p1088
aS'f4fc8da5742c46c1a66065dd9f3dfd91'
p1089
aa(lp1090
S'var/db/pkg/m4-1.4.14/+INSTALL'
p1091
aS'11ba3dc4f0a6b9894bf3840cff6b8e34'
p1092
aa(lp1093
S'var/db/pkg/m4-1.4.14/+BUILD_INFO'
p1094
aS'b907c3e812f9ee6e1cdeacb0fc85bce4'
p1095
aa(lp1096
S'var/db/pkg/ncurses-5.7nb3/+SIZE_ALL'
p1097
aS'897316929176464ebc9ad085f31e7284'
p1098
aa(lp1099
S'var/db/pkg/ncurses-5.7nb3/+INSTALLED_INFO'
p1100
aS'65d6bb0a6aa6f7d6e5551405db02d6f9'
p1101
aa(lp1102
S'var/db/pkg/ncurses-5.7nb3/+COMMENT'
p1103
aS'148580b97cc2c1cd4d3ee49af039677a'
p1104
aa(lp1105
S'var/db/pkg/ncurses-5.7nb3/+REQUIRED_BY'
p1106
aS'ba43f9b0cf9df3a886eaf56d34a0bf0b'
p1107
aa(lp1108
S'var/db/pkg/ncurses-5.7nb3/+BUILD_VERSION'
p1109
aS'eba28467dc484d573b152420019f0f51'
p1110
aa(lp1111
S'var/db/pkg/ncurses-5.7nb3/+CONTENTS'
p1112
aS'8de169095dc51b2e6363eb39ebf5ef75'
p1113
aa(lp1114
S'var/db/pkg/ncurses-5.7nb3/+SIZE_PKG'
p1115
aS'897316929176464ebc9ad085f31e7284'
p1116
aa(lp1117
S'var/db/pkg/ncurses-5.7nb3/+DESC'
p1118
aS'7976d57ddcee72931bd8c9d77ca43eed'
p1119
aa(lp1120
S'var/db/pkg/ncurses-5.7nb3/+BUILD_INFO'
p1121
aS'ac3442f02b195531bb584b91c733280c'
p1122
aa(lp1123
S'var/db/pkg/libgpg-error-1.7/+SIZE_ALL'
p1124
aS'897316929176464ebc9ad085f31e7284'
p1125
aa(lp1126
S'var/db/pkg/libgpg-error-1.7/+INSTALLED_INFO'
p1127
aS'65d6bb0a6aa6f7d6e5551405db02d6f9'
p1128
aa(lp1129
S'var/db/pkg/libgpg-error-1.7/+COMMENT'
p1130
aS'53f7994365a3b4b1ccb8788e0b4486d6'
p1131
aa(lp1132
S'var/db/pkg/libgpg-error-1.7/+REQUIRED_BY'
p1133
aS'61a7427be25fe34575940a44275eb358'
p1134
aa(lp1135
S'var/db/pkg/libgpg-error-1.7/+BUILD_VERSION'
p1136
aS'cc4ecc2cd81c45d97094d176064f39ea'
p1137
aa(lp1138
S'var/db/pkg/libgpg-error-1.7/+CONTENTS'
p1139
aS'1e6c4488d929c3a50830e894024116de'
p1140
aa(lp1141
S'var/db/pkg/libgpg-error-1.7/+SIZE_PKG'
p1142
aS'897316929176464ebc9ad085f31e7284'
p1143
aa(lp1144
S'var/db/pkg/libgpg-error-1.7/+DESC'
p1145
aS'c5e7fa5f3f847e7edd57b96b5d167f65'
p1146
aa(lp1147
S'var/db/pkg/libgpg-error-1.7/+BUILD_INFO'
p1148
aS'9af214ab0ff6861edad5308c0076b9dd'
p1149
aa(lp1150
S'var/db/pkg/bootstrap-mk-files-20090807nb1/+SIZE_ALL'
p1151
aS'897316929176464ebc9ad085f31e7284'
p1152
aa(lp1153
S'var/db/pkg/bootstrap-mk-files-20090807nb1/+COMMENT'
p1154
aS'387fd70bea9d0b5f0023d3252fcdc26e'
p1155
aa(lp1156
S'var/db/pkg/bootstrap-mk-files-20090807nb1/+REQUIRED_BY'
p1157
aS'45662a510625db0818d8d4b6727c7694'
p1158
aa(lp1159
S'var/db/pkg/bootstrap-mk-files-20090807nb1/+BUILD_VERSION'
p1160
aS'2605da4f6bf3291c9e0743fd7c280f0f'
p1161
aa(lp1162
S'var/db/pkg/bootstrap-mk-files-20090807nb1/+CONTENTS'
p1163
aS'9668526f3c10dd7247827982a7720353'
p1164
aa(lp1165
S'var/db/pkg/bootstrap-mk-files-20090807nb1/+SIZE_PKG'
p1166
aS'897316929176464ebc9ad085f31e7284'
p1167
aa(lp1168
S'var/db/pkg/bootstrap-mk-files-20090807nb1/+DESC'
p1169
aS'bbf4546accb08fc32a5475ffcb8065da'
p1170
aa(lp1171
S'var/db/pkg/bootstrap-mk-files-20090807nb1/+BUILD_INFO'
p1172
aS'1a793c3238b32f9f589f1f7b1230f0de'
p1173
aa(lp1174
S'var/db/pkg/bootstrap-mk-files-20090807nb1/+PRESERVE'
p1175
aS'9ff8c0b2819ea7f7c412c54110cafde4'
p1176
aa(lp1177
S'var/db/pkg/zlib-1.2.3/+SIZE_ALL'
p1178
aS'897316929176464ebc9ad085f31e7284'
p1179
aa(lp1180
S'var/db/pkg/zlib-1.2.3/+INSTALLED_INFO'
p1181
aS'65d6bb0a6aa6f7d6e5551405db02d6f9'
p1182
aa(lp1183
S'var/db/pkg/zlib-1.2.3/+COMMENT'
p1184
aS'8c44a11bd76385aa82a10367d71ac232'
p1185
aa(lp1186
S'var/db/pkg/zlib-1.2.3/+REQUIRED_BY'
p1187
aS'ac6a4831a97cb20f31bafb63261a127b'
p1188
aa(lp1189
S'var/db/pkg/zlib-1.2.3/+BUILD_VERSION'
p1190
aS'09c448c2be980ed3857b7ac63ad67519'
p1191
aa(lp1192
S'var/db/pkg/zlib-1.2.3/+CONTENTS'
p1193
aS'2648cb2450f9d28deb710f2b888425e6'
p1194
aa(lp1195
S'var/db/pkg/zlib-1.2.3/+SIZE_PKG'
p1196
aS'897316929176464ebc9ad085f31e7284'
p1197
aa(lp1198
S'var/db/pkg/zlib-1.2.3/+DESC'
p1199
aS'b1b676ffd26bf98e19fceeb83367cff2'
p1200
aa(lp1201
S'var/db/pkg/zlib-1.2.3/+BUILD_INFO'
p1202
aS'360e9bfc1b1029a223a3c0ee36e0d83f'
p1203
aa(lp1204
S'var/db/pkg/curl-7.20.0/+SIZE_ALL'
p1205
aS'897316929176464ebc9ad085f31e7284'
p1206
aa(lp1207
S'var/db/pkg/curl-7.20.0/+COMMENT'
p1208
aS'9b0387fc4d3ed9bf9cb0bac53205e6c0'
p1209
aa(lp1210
S'var/db/pkg/curl-7.20.0/+REQUIRED_BY'
p1211
aS'bc46823292b8aa35d0160aee4dd97a60'
p1212
aa(lp1213
S'var/db/pkg/curl-7.20.0/+BUILD_VERSION'
p1214
aS'c244fb9d4aeb9362c259f8c16fb7b4a8'
p1215
aa(lp1216
S'var/db/pkg/curl-7.20.0/+CONTENTS'
p1217
aS'450a5ada05ea49d28b2b4a682d2d89ef'
p1218
aa(lp1219
S'var/db/pkg/curl-7.20.0/+SIZE_PKG'
p1220
aS'897316929176464ebc9ad085f31e7284'
p1221
aa(lp1222
S'var/db/pkg/curl-7.20.0/+DESC'
p1223
aS'21cc65ba8e3ab0bc87b37098b7cf45a7'
p1224
aa(lp1225
S'var/db/pkg/curl-7.20.0/+BUILD_INFO'
p1226
aS'005d0ee0451f44dade5c49463c014e38'
p1227
aa(lp1228
S'var/db/pkg/bash-4.1/+INFO_FILES'
p1229
aS'6bf7e74ced3241a97f3adb814704f550'
p1230
aa(lp1231
S'var/db/pkg/bash-4.1/+SIZE_ALL'
p1232
aS'897316929176464ebc9ad085f31e7284'
p1233
aa(lp1234
S'var/db/pkg/bash-4.1/+FILES'
p1235
aS'8ed6468526c341a0cf1d775f65e9be2f'
p1236
aa(lp1237
S'var/db/pkg/bash-4.1/+SHELL'
p1238
aS'5f48036673f28af0ae7c943f0bbc8c1f'
p1239
aa(lp1240
S'var/db/pkg/bash-4.1/+COMMENT'
p1241
aS'e4f5e6a6f0131b5115b103e38a94ea1c'
p1242
aa(lp1243
S'var/db/pkg/bash-4.1/+REQUIRED_BY'
p1244
aS'f9e4cd4dba24bcd4a5bbad8edb447833'
p1245
aa(lp1246
S'var/db/pkg/bash-4.1/+BUILD_VERSION'
p1247
aS'22b564c417c24e17d70d25a047ba9c99'
p1248
aa(lp1249
S'var/db/pkg/bash-4.1/+CONTENTS'
p1250
aS'1ec2cca1146f41f63511701c0635895b'
p1251
aa(lp1252
S'var/db/pkg/bash-4.1/+SIZE_PKG'
p1253
aS'897316929176464ebc9ad085f31e7284'
p1254
aa(lp1255
S'var/db/pkg/bash-4.1/+DEINSTALL'
p1256
aS'a08a90a6d0b92b6dfb91f6ffef9cc124'
p1257
aa(lp1258
S'var/db/pkg/bash-4.1/+DIRS'
p1259
aS'39e0424ca9e60d7ddce5a1ef6929065d'
p1260
aa(lp1261
S'var/db/pkg/bash-4.1/+DESC'
p1262
aS'03d9022ea0b8a37481cdcbd6deac0be5'
p1263
aa(lp1264
S'var/db/pkg/bash-4.1/+INSTALL'
p1265
aS'af4ca330a1baa3e8f737baef27a389c5'
p1266
aa(lp1267
S'var/db/pkg/bash-4.1/+BUILD_INFO'
p1268
aS'4e0d362b3f637000ecd6e8bbe19d83c8'
p1269
aa(lp1270
S'var/db/pkg/boost-headers-1.42.0/+SIZE_ALL'
p1271
aS'897316929176464ebc9ad085f31e7284'
p1272
aa(lp1273
S'var/db/pkg/boost-headers-1.42.0/+COMMENT'
p1274
aS'362378ca1b9c6de128595ac2e8fef119'
p1275
aa(lp1276
S'var/db/pkg/boost-headers-1.42.0/+BUILD_VERSION'
p1277
aS'3921b895a62e282c8d23ce2a36c9d1af'
p1278
aa(lp1279
S'var/db/pkg/boost-headers-1.42.0/+CONTENTS'
p1280
aS'8ae770f8be0441c74e9638810e26d252'
p1281
aa(lp1282
S'var/db/pkg/boost-headers-1.42.0/+SIZE_PKG'
p1283
aS'897316929176464ebc9ad085f31e7284'
p1284
aa(lp1285
S'var/db/pkg/boost-headers-1.42.0/+DESC'
p1286
aS'fddc9dfde287ad5c27444d77ff3b25a1'
p1287
aa(lp1288
S'var/db/pkg/boost-headers-1.42.0/+BUILD_INFO'
p1289
aS'165c8bbc2e13184828135a1617e5fbd1'
p1290
aa(lp1291
S'var/db/pkg/xmlcatmgr-2.2nb1/+SIZE_ALL'
p1292
aS'897316929176464ebc9ad085f31e7284'
p1293
aa(lp1294
S'var/db/pkg/xmlcatmgr-2.2nb1/+FILES'
p1295
aS'c6d986bce5fa933f89d28d30224ebc2b'
p1296
aa(lp1297
S'var/db/pkg/xmlcatmgr-2.2nb1/+INSTALLED_INFO'
p1298
aS'65d6bb0a6aa6f7d6e5551405db02d6f9'
p1299
aa(lp1300
S'var/db/pkg/xmlcatmgr-2.2nb1/+COMMENT'
p1301
aS'd59be71027c05c65d3b4089041f43d9c'
p1302
aa(lp1303
S'var/db/pkg/xmlcatmgr-2.2nb1/+REQUIRED_BY'
p1304
aS'5a2a1e67464aac22d2f30b4e24e73c98'
p1305
aa(lp1306
S'var/db/pkg/xmlcatmgr-2.2nb1/+BUILD_VERSION'
p1307
aS'decc5bd2877bd9944f9e9cd382750117'
p1308
aa(lp1309
S'var/db/pkg/xmlcatmgr-2.2nb1/+CONTENTS'
p1310
aS'0e04bbb7b2161c3d6a0e9a120bce4233'
p1311
aa(lp1312
S'var/db/pkg/xmlcatmgr-2.2nb1/+SIZE_PKG'
p1313
aS'897316929176464ebc9ad085f31e7284'
p1314
aa(lp1315
S'var/db/pkg/xmlcatmgr-2.2nb1/+DISPLAY'
p1316
aS'09f8d194c21f322a3ccf536c1a144bb8'
p1317
aa(lp1318
S'var/db/pkg/xmlcatmgr-2.2nb1/+DEINSTALL'
p1319
aS'799bd6081b888cad3c93f9289fde9823'
p1320
aa(lp1321
S'var/db/pkg/xmlcatmgr-2.2nb1/+DIRS'
p1322
aS'8fedf43f0c421d17928aa8e15b4db68d'
p1323
aa(lp1324
S'var/db/pkg/xmlcatmgr-2.2nb1/+DESC'
p1325
aS'1d328864ec440dc42fc121a9851cefe1'
p1326
aa(lp1327
S'var/db/pkg/xmlcatmgr-2.2nb1/+INSTALL'
p1328
aS'851faf35686021d7eb0d61bfe6018566'
p1329
aa(lp1330
S'var/db/pkg/xmlcatmgr-2.2nb1/+BUILD_INFO'
p1331
aS'826e8b19c0c5b274a24459eef38c4a45'
p1332
aa(lp1333
S'var/db/pkg/gtexinfo-4.13/+INFO_FILES'
p1334
aS'0edcaa570ac21248f67771bf5f8b4c57'
p1335
aa(lp1336
S'var/db/pkg/gtexinfo-4.13/+SIZE_ALL'
p1337
aS'897316929176464ebc9ad085f31e7284'
p1338
aa(lp1339
S'var/db/pkg/gtexinfo-4.13/+INSTALLED_INFO'
p1340
aS'65d6bb0a6aa6f7d6e5551405db02d6f9'
p1341
aa(lp1342
S'var/db/pkg/gtexinfo-4.13/+COMMENT'
p1343
aS'13e3b73aecba6345e8a759c845e9c67f'
p1344
aa(lp1345
S'var/db/pkg/gtexinfo-4.13/+BUILD_VERSION'
p1346
aS'13de5b44ba72ee6fd48eb86bc58d8493'
p1347
aa(lp1348
S'var/db/pkg/gtexinfo-4.13/+CONTENTS'
p1349
aS'5f54356fabc4371c8b68b0ca94743908'
p1350
aa(lp1351
S'var/db/pkg/gtexinfo-4.13/+SIZE_PKG'
p1352
aS'897316929176464ebc9ad085f31e7284'
p1353
aa(lp1354
S'var/db/pkg/gtexinfo-4.13/+DISPLAY'
p1355
aS'3ecc0c2e3ae8ae2dea0d1bce0dec66b6'
p1356
aa(lp1357
S'var/db/pkg/gtexinfo-4.13/+DEINSTALL'
p1358
aS'684bd91eaa37592a19a08a8eca3d697e'
p1359
aa(lp1360
S'var/db/pkg/gtexinfo-4.13/+DESC'
p1361
aS'c83df88ffaa42d047aefaba1543e9f20'
p1362
aa(lp1363
S'var/db/pkg/gtexinfo-4.13/+INSTALL'
p1364
aS'0085bba348bd672b51261e348b018bda'
p1365
aa(lp1366
S'var/db/pkg/gtexinfo-4.13/+BUILD_INFO'
p1367
aS'149d3539711f19ed00262b6e9e7e0c50'
p1368
aa(lp1369
S'var/db/pkg/boost-libs-1.42.0/+SIZE_ALL'
p1370
aS'897316929176464ebc9ad085f31e7284'
p1371
aa(lp1372
S'var/db/pkg/boost-libs-1.42.0/+COMMENT'
p1373
aS'3f72056b830205c01c0966bda1527d1c'
p1374
aa(lp1375
S'var/db/pkg/boost-libs-1.42.0/+BUILD_VERSION'
p1376
aS'059dd8dd0044e0dc65e801347087f06e'
p1377
aa(lp1378
S'var/db/pkg/boost-libs-1.42.0/+CONTENTS'
p1379
aS'6b94e79723586f5cb3fa7e1abb25cc59'
p1380
aa(lp1381
S'var/db/pkg/boost-libs-1.42.0/+SIZE_PKG'
p1382
aS'897316929176464ebc9ad085f31e7284'
p1383
aa(lp1384
S'var/db/pkg/boost-libs-1.42.0/+DESC'
p1385
aS'332727f7356b31b1bc884c6af82260e4'
p1386
aa(lp1387
S'var/db/pkg/boost-libs-1.42.0/+BUILD_INFO'
p1388
aS'42e4121fd244b6b4e79f0e0d40d411e9'
p1389
aa(lp1390
S'var/db/pkg/xmlrpc-c-ss-1.06.38nb3/+SIZE_ALL'
p1391
aS'897316929176464ebc9ad085f31e7284'
p1392
aa(lp1393
S'var/db/pkg/xmlrpc-c-ss-1.06.38nb3/+COMMENT'
p1394
aS'dd8376d3e92adc8a42c5416f321e4a5c'
p1395
aa(lp1396
S'var/db/pkg/xmlrpc-c-ss-1.06.38nb3/+REQUIRED_BY'
p1397
aS'5abee91008225dfb56f15a281644d888'
p1398
aa(lp1399
S'var/db/pkg/xmlrpc-c-ss-1.06.38nb3/+BUILD_VERSION'
p1400
aS'a3cf94556f4c4386aef0d4c34505b101'
p1401
aa(lp1402
S'var/db/pkg/xmlrpc-c-ss-1.06.38nb3/+CONTENTS'
p1403
aS'6132641109eb7c0651feed3dd66d1838'
p1404
aa(lp1405
S'var/db/pkg/xmlrpc-c-ss-1.06.38nb3/+SIZE_PKG'
p1406
aS'897316929176464ebc9ad085f31e7284'
p1407
aa(lp1408
S'var/db/pkg/xmlrpc-c-ss-1.06.38nb3/+DESC'
p1409
aS'd4778abac591a781064d3fbca2fa825a'
p1410
aa(lp1411
S'var/db/pkg/xmlrpc-c-ss-1.06.38nb3/+BUILD_INFO'
p1412
aS'4380b78fde3516c5fa6c8c24ba44c669'
p1413
aa(lp1414
S'var/db/pkg/libidn-1.18/+INFO_FILES'
p1415
aS'e289b1ba40a1b45a1fabae7c2c7ed06c'
p1416
aa(lp1417
S'var/db/pkg/libidn-1.18/+SIZE_ALL'
p1418
aS'897316929176464ebc9ad085f31e7284'
p1419
aa(lp1420
S'var/db/pkg/libidn-1.18/+INSTALLED_INFO'
p1421
aS'65d6bb0a6aa6f7d6e5551405db02d6f9'
p1422
aa(lp1423
S'var/db/pkg/libidn-1.18/+COMMENT'
p1424
aS'bb1ef936b42694fdaddbcbd736a07dc7'
p1425
aa(lp1426
S'var/db/pkg/libidn-1.18/+REQUIRED_BY'
p1427
aS'd4741b2fabf2e17e6e898264e27aeb85'
p1428
aa(lp1429
S'var/db/pkg/libidn-1.18/+BUILD_VERSION'
p1430
aS'f6c886eb094c5bdc557c11d354c68f13'
p1431
aa(lp1432
S'var/db/pkg/libidn-1.18/+CONTENTS'
p1433
aS'78d316d5ba44c381ac72dd8c23a4d116'
p1434
aa(lp1435
S'var/db/pkg/libidn-1.18/+SIZE_PKG'
p1436
aS'897316929176464ebc9ad085f31e7284'
p1437
aa(lp1438
S'var/db/pkg/libidn-1.18/+DEINSTALL'
p1439
aS'17673d7afa66972d920841df3633f6c5'
p1440
aa(lp1441
S'var/db/pkg/libidn-1.18/+DESC'
p1442
aS'93d442e74e1a52e2ed91b945ca9e14c6'
p1443
aa(lp1444
S'var/db/pkg/libidn-1.18/+INSTALL'
p1445
aS'e9b18a2e01b4ae16cec5fce2c49108ad'
p1446
aa(lp1447
S'var/db/pkg/libidn-1.18/+BUILD_INFO'
p1448
aS'2a021780dc0bdb4a5dfa169c0e6dc0ab'
p1449
aa(lp1450
S'var/db/pkg/automake14-1.4.6/+INFO_FILES'
p1451
aS'3f5715a847d323467dc043a5f7af7e2a'
p1452
aa(lp1453
S'var/db/pkg/automake14-1.4.6/+SIZE_ALL'
p1454
aS'897316929176464ebc9ad085f31e7284'
p1455
aa(lp1456
S'var/db/pkg/automake14-1.4.6/+INSTALLED_INFO'
p1457
aS'65d6bb0a6aa6f7d6e5551405db02d6f9'
p1458
aa(lp1459
S'var/db/pkg/automake14-1.4.6/+COMMENT'
p1460
aS'34a3629b9402d2f9b840b35ff956c2af'
p1461
aa(lp1462
S'var/db/pkg/automake14-1.4.6/+BUILD_VERSION'
p1463
aS'7ac7d677624172615f5bfe41e6d7a4d3'
p1464
aa(lp1465
S'var/db/pkg/automake14-1.4.6/+CONTENTS'
p1466
aS'd7b3a018100e13a7c072d58adb065382'
p1467
aa(lp1468
S'var/db/pkg/automake14-1.4.6/+SIZE_PKG'
p1469
aS'897316929176464ebc9ad085f31e7284'
p1470
aa(lp1471
S'var/db/pkg/automake14-1.4.6/+DEINSTALL'
p1472
aS'18d19614450bf86f79720a6d8251b902'
p1473
aa(lp1474
S'var/db/pkg/automake14-1.4.6/+DESC'
p1475
aS'efe0ebfa613aec172adc40b2846c8e42'
p1476
aa(lp1477
S'var/db/pkg/automake14-1.4.6/+INSTALL'
p1478
aS'd784f722e377a8083653c74d701bbfef'
p1479
aa(lp1480
S'var/db/pkg/automake14-1.4.6/+BUILD_INFO'
p1481
aS'7d6f644f442f72cde106233488ad706d'
p1482
aa(lp1483
S'var/db/pkg/py26-setuptools-0.6c11/+SIZE_ALL'
p1484
aS'897316929176464ebc9ad085f31e7284'
p1485
aa(lp1486
S'var/db/pkg/py26-setuptools-0.6c11/+COMMENT'
p1487
aS'd9e555ddbac886b80b037e13b474a5af'
p1488
aa(lp1489
S'var/db/pkg/py26-setuptools-0.6c11/+BUILD_VERSION'
p1490
aS'23db2dd4ecdced83c52ba2415c11e4d7'
p1491
aa(lp1492
S'var/db/pkg/py26-setuptools-0.6c11/+CONTENTS'
p1493
aS'055a081c913e00ecdbd090569aabd7f4'
p1494
aa(lp1495
S'var/db/pkg/py26-setuptools-0.6c11/+SIZE_PKG'
p1496
aS'897316929176464ebc9ad085f31e7284'
p1497
aa(lp1498
S'var/db/pkg/py26-setuptools-0.6c11/+DEINSTALL'
p1499
aS'825799aecf54ba4ceaa5324950898731'
p1500
aa(lp1501
S'var/db/pkg/py26-setuptools-0.6c11/+DESC'
p1502
aS'1132868b5c895e840ed773848d7492f5'
p1503
aa(lp1504
S'var/db/pkg/py26-setuptools-0.6c11/+INSTALL'
p1505
aS'9c39c3677e9e63c8d10ffa02a9077e96'
p1506
aa(lp1507
S'var/db/pkg/py26-setuptools-0.6c11/+BUILD_INFO'
p1508
aS'10706f04ba5f321f7772d5aa556d7ae5'
p1509
aa(lp1510
S'var/db/pkg/expat-2.0.1nb2/+SIZE_ALL'
p1511
aS'897316929176464ebc9ad085f31e7284'
p1512
aa(lp1513
S'var/db/pkg/expat-2.0.1nb2/+INSTALLED_INFO'
p1514
aS'65d6bb0a6aa6f7d6e5551405db02d6f9'
p1515
aa(lp1516
S'var/db/pkg/expat-2.0.1nb2/+COMMENT'
p1517
aS'6bd703c8d6af27b7fb3554ca05e1f2cc'
p1518
aa(lp1519
S'var/db/pkg/expat-2.0.1nb2/+REQUIRED_BY'
p1520
aS'5abee91008225dfb56f15a281644d888'
p1521
aa(lp1522
S'var/db/pkg/expat-2.0.1nb2/+BUILD_VERSION'
p1523
aS'd5a9d1878712f14a7f6e9fe0989d5704'
p1524
aa(lp1525
S'var/db/pkg/expat-2.0.1nb2/+CONTENTS'
p1526
aS'9e5c2cf9b6239bbcfd2351ee6df6e2ef'
p1527
aa(lp1528
S'var/db/pkg/expat-2.0.1nb2/+SIZE_PKG'
p1529
aS'897316929176464ebc9ad085f31e7284'
p1530
aa(lp1531
S'var/db/pkg/expat-2.0.1nb2/+DESC'
p1532
aS'10a670d7e5ca20bd2f25edc6e262f65e'
p1533
aa(lp1534
S'var/db/pkg/expat-2.0.1nb2/+BUILD_INFO'
p1535
aS'eda69d5af829b4b164de8f5dda54cc33'
p1536
aa(lp1537
S'var/db/pkg/gettext-lib-0.14.6/+SIZE_ALL'
p1538
aS'897316929176464ebc9ad085f31e7284'
p1539
aa(lp1540
S'var/db/pkg/gettext-lib-0.14.6/+FILES'
p1541
aS'd8b5cf74377a0e950fa0109fa3dc9eef'
p1542
aa(lp1543
S'var/db/pkg/gettext-lib-0.14.6/+INSTALLED_INFO'
p1544
aS'65d6bb0a6aa6f7d6e5551405db02d6f9'
p1545
aa(lp1546
S'var/db/pkg/gettext-lib-0.14.6/+COMMENT'
p1547
aS'9c800ca732a46cc847d6b30643f3e85b'
p1548
aa(lp1549
S'var/db/pkg/gettext-lib-0.14.6/+REQUIRED_BY'
p1550
aS'4e9a1da3cb050ebc9b7f9d15dd0a22e4'
p1551
aa(lp1552
S'var/db/pkg/gettext-lib-0.14.6/+BUILD_VERSION'
p1553
aS'6ceace5d8decca5ad2f8766ca0ca3a1e'
p1554
aa(lp1555
S'var/db/pkg/gettext-lib-0.14.6/+CONTENTS'
p1556
aS'ba947ec06a28ad6085669442f3e109f6'
p1557
aa(lp1558
S'var/db/pkg/gettext-lib-0.14.6/+SIZE_PKG'
p1559
aS'897316929176464ebc9ad085f31e7284'
p1560
aa(lp1561
S'var/db/pkg/gettext-lib-0.14.6/+DEINSTALL'
p1562
aS'a0ad31ba6e91771a9ee13a278686c581'
p1563
aa(lp1564
S'var/db/pkg/gettext-lib-0.14.6/+DIRS'
p1565
aS'b11d80d912f79d6710005fe320db577c'
p1566
aa(lp1567
S'var/db/pkg/gettext-lib-0.14.6/+DESC'
p1568
aS'51ca1b0cd9895554fd715975dde0a29b'
p1569
aa(lp1570
S'var/db/pkg/gettext-lib-0.14.6/+INSTALL'
p1571
aS'26748a056114a2e5175f4ab8263a0b4b'
p1572
aa(lp1573
S'var/db/pkg/gettext-lib-0.14.6/+BUILD_INFO'
p1574
aS'a8182fd078e304d772bad294fb1c6daa'
p1575
aa(lp1576
S'var/db/pkg/bzip2-1.0.5nb1/+SIZE_ALL'
p1577
aS'897316929176464ebc9ad085f31e7284'
p1578
aa(lp1579
S'var/db/pkg/bzip2-1.0.5nb1/+INSTALLED_INFO'
p1580
aS'65d6bb0a6aa6f7d6e5551405db02d6f9'
p1581
aa(lp1582
S'var/db/pkg/bzip2-1.0.5nb1/+COMMENT'
p1583
aS'35a17f0098dd6444fd088bcd46cb688e'
p1584
aa(lp1585
S'var/db/pkg/bzip2-1.0.5nb1/+REQUIRED_BY'
p1586
aS'b76ee5bbe260fb46ede382d0d9e69616'
p1587
aa(lp1588
S'var/db/pkg/bzip2-1.0.5nb1/+BUILD_VERSION'
p1589
aS'6928a9d1dbba80ccaa67dd7b6562c0ea'
p1590
aa(lp1591
S'var/db/pkg/bzip2-1.0.5nb1/+CONTENTS'
p1592
aS'd57bf69cf876ae119767f7a4e3682543'
p1593
aa(lp1594
S'var/db/pkg/bzip2-1.0.5nb1/+SIZE_PKG'
p1595
aS'897316929176464ebc9ad085f31e7284'
p1596
aa(lp1597
S'var/db/pkg/bzip2-1.0.5nb1/+DESC'
p1598
aS'165399ed6b4a163d1601b310e48163e2'
p1599
aa(lp1600
S'var/db/pkg/bzip2-1.0.5nb1/+BUILD_INFO'
p1601
aS'cf0cec812acc5fe43a0b346f63d1943f'
p1602
aa(lp1603
S'var/db/pkg/gettext-tools-0.14.6nb1/+INFO_FILES'
p1604
aS'10bcae3ba5d12e211e325a5af05524a5'
p1605
aa(lp1606
S'var/db/pkg/gettext-tools-0.14.6nb1/+SIZE_ALL'
p1607
aS'897316929176464ebc9ad085f31e7284'
p1608
aa(lp1609
S'var/db/pkg/gettext-tools-0.14.6nb1/+INSTALLED_INFO'
p1610
aS'65d6bb0a6aa6f7d6e5551405db02d6f9'
p1611
aa(lp1612
S'var/db/pkg/gettext-tools-0.14.6nb1/+COMMENT'
p1613
aS'742dcaf04b105ab4fd2f22764d2c2495'
p1614
aa(lp1615
S'var/db/pkg/gettext-tools-0.14.6nb1/+REQUIRED_BY'
p1616
aS'680257f3d80b9157a567caef8d10ba91'
p1617
aa(lp1618
S'var/db/pkg/gettext-tools-0.14.6nb1/+BUILD_VERSION'
p1619
aS'9989eb21d0ce8f4c269e54273cd50405'
p1620
aa(lp1621
S'var/db/pkg/gettext-tools-0.14.6nb1/+CONTENTS'
p1622
aS'2875cc618b0c9dcfdb4d1c6f493ee313'
p1623
aa(lp1624
S'var/db/pkg/gettext-tools-0.14.6nb1/+SIZE_PKG'
p1625
aS'897316929176464ebc9ad085f31e7284'
p1626
aa(lp1627
S'var/db/pkg/gettext-tools-0.14.6nb1/+DEINSTALL'
p1628
aS'64cb4d391bac0322738043d6ab2ab25f'
p1629
aa(lp1630
S'var/db/pkg/gettext-tools-0.14.6nb1/+DESC'
p1631
aS'e2f07d9588d1c2e5d62b89cd702abeea'
p1632
aa(lp1633
S'var/db/pkg/gettext-tools-0.14.6nb1/+INSTALL'
p1634
aS'844901266f670105114447fdf577a700'
p1635
aa(lp1636
S'var/db/pkg/gettext-tools-0.14.6nb1/+BUILD_INFO'
p1637
aS'b037010f7b371f353088cb8314f665a9'
p1638
aa(lp1639
S'var/db/pkg/python26-2.6.4nb4/+SIZE_ALL'
p1640
aS'897316929176464ebc9ad085f31e7284'
p1641
aa(lp1642
S'var/db/pkg/python26-2.6.4nb4/+ALTERNATIVES'
p1643
aS'41a23fccf28b9e0806964c7983d7265b'
p1644
aa(lp1645
S'var/db/pkg/python26-2.6.4nb4/+INSTALLED_INFO'
p1646
aS'65d6bb0a6aa6f7d6e5551405db02d6f9'
p1647
aa(lp1648
S'var/db/pkg/python26-2.6.4nb4/+COMMENT'
p1649
aS'ceef580a179a1833b4ff8567ccf2b068'
p1650
aa(lp1651
S'var/db/pkg/python26-2.6.4nb4/+REQUIRED_BY'
p1652
aS'65ad219e19bc1c16972550bf6afb2ccf'
p1653
aa(lp1654
S'var/db/pkg/python26-2.6.4nb4/+BUILD_VERSION'
p1655
aS'd8df0b49f27c64128fd94ed54168edb2'
p1656
aa(lp1657
S'var/db/pkg/python26-2.6.4nb4/+CONTENTS'
p1658
aS'6018b8f0bf7271634f39bf510949c60d'
p1659
aa(lp1660
S'var/db/pkg/python26-2.6.4nb4/+SIZE_PKG'
p1661
aS'897316929176464ebc9ad085f31e7284'
p1662
aa(lp1663
S'var/db/pkg/python26-2.6.4nb4/+DEINSTALL'
p1664
aS'd7ba9375e215e96a17f17d87d5af36f7'
p1665
aa(lp1666
S'var/db/pkg/python26-2.6.4nb4/+DESC'
p1667
aS'50b6fba13f1ecb562495d320cec4f845'
p1668
aa(lp1669
S'var/db/pkg/python26-2.6.4nb4/+INSTALL'
p1670
aS'24122d690e8c1664e29a2d1d5d032de0'
p1671
aa(lp1672
S'var/db/pkg/python26-2.6.4nb4/+BUILD_INFO'
p1673
aS'f5f7a8c7f6bbd37bce984cfce7ebb885'
p1674
aa(lp1675
S'var/db/pkg/db4-4.7.25.3/+SIZE_ALL'
p1676
aS'897316929176464ebc9ad085f31e7284'
p1677
aa(lp1678
S'var/db/pkg/db4-4.7.25.3/+COMMENT'
p1679
aS'da45e3ddaf9c540ae75cde0f0a66c87c'
p1680
aa(lp1681
S'var/db/pkg/db4-4.7.25.3/+REQUIRED_BY'
p1682
aS'78dd801fe2f94859e281b8557d96b9f7'
p1683
aa(lp1684
S'var/db/pkg/db4-4.7.25.3/+BUILD_VERSION'
p1685
aS'fa2137427fec0c0a7f7f6033b00c9cff'
p1686
aa(lp1687
S'var/db/pkg/db4-4.7.25.3/+CONTENTS'
p1688
aS'08f79204f7a5f5630704e0aac027e90f'
p1689
aa(lp1690
S'var/db/pkg/db4-4.7.25.3/+SIZE_PKG'
p1691
aS'897316929176464ebc9ad085f31e7284'
p1692
aa(lp1693
S'var/db/pkg/db4-4.7.25.3/+DESC'
p1694
aS'2adab50d81a34c87d31e4dc551f49877'
p1695
aa(lp1696
S'var/db/pkg/db4-4.7.25.3/+BUILD_INFO'
p1697
aS'd88df6426017aafc562c598ba825fb87'
p1698
aa(lp1699
S'var/db/pkg/mercurial-1.5.1/+SIZE_ALL'
p1700
aS'897316929176464ebc9ad085f31e7284'
p1701
aa(lp1702
S'var/db/pkg/mercurial-1.5.1/+COMMENT'
p1703
aS'13639e2c7c758b57d27a7c15db1ba33c'
p1704
aa(lp1705
S'var/db/pkg/mercurial-1.5.1/+BUILD_VERSION'
p1706
aS'003ffff20138e9504dfffba36c92c59c'
p1707
aa(lp1708
S'var/db/pkg/mercurial-1.5.1/+CONTENTS'
p1709
aS'c58b70f69a32abcef476b5d1b7351db5'
p1710
aa(lp1711
S'var/db/pkg/mercurial-1.5.1/+SIZE_PKG'
p1712
aS'897316929176464ebc9ad085f31e7284'
p1713
aa(lp1714
S'var/db/pkg/mercurial-1.5.1/+DESC'
p1715
aS'af7d2d7107adae2a1f307dd3743bc0fc'
p1716
aa(lp1717
S'var/db/pkg/mercurial-1.5.1/+BUILD_INFO'
p1718
aS'5a1d976dffda702aee483e169eb95a25'
p1719
aa(lp1720
S'var/db/pkg/pkg_install-20100421/+SIZE_ALL'
p1721
aS'897316929176464ebc9ad085f31e7284'
p1722
aa(lp1723
S'var/db/pkg/pkg_install-20100421/+COMMENT'
p1724
aS'34f71a9b70bc71fdc62225bc051d4739'
p1725
aa(lp1726
S'var/db/pkg/pkg_install-20100421/+BUILD_VERSION'
p1727
aS'4cebad792cbf392b6f1b0da33138fb5d'
p1728
aa(lp1729
S'var/db/pkg/pkg_install-20100421/+CONTENTS'
p1730
aS'a641988a58283e256564ccb775279d82'
p1731
aa(lp1732
S'var/db/pkg/pkg_install-20100421/+SIZE_PKG'
p1733
aS'897316929176464ebc9ad085f31e7284'
p1734
aa(lp1735
S'var/db/pkg/pkg_install-20100421/+DISPLAY'
p1736
aS'9461dec4aa04e33e94528d4090fe4854'
p1737
aa(lp1738
S'var/db/pkg/pkg_install-20100421/+DEINSTALL'
p1739
aS'33e4fd94e2560e008e2c3b431d0e3419'
p1740
aa(lp1741
S'var/db/pkg/pkg_install-20100421/+DESC'
p1742
aS'1f26c7ca336104a26da11a0974fda5a1'
p1743
aa(lp1744
S'var/db/pkg/pkg_install-20100421/+INSTALL'
p1745
aS'e9232759cac6dc81fddc04731aee1780'
p1746
aa(lp1747
S'var/db/pkg/pkg_install-20100421/+BUILD_INFO'
p1748
aS'4b8487ff2aebc692eaa985adb1035a99'
p1749
aa(lp1750
S'var/db/pkg/pkg_install-20100421/+PRESERVE'
p1751
aS'9bd72f77bc5d60097574ab09f4da39cb'
p1752
aa(lp1753
S'var/db/pkg/nbsed-20040821nb1/+SIZE_ALL'
p1754
aS'897316929176464ebc9ad085f31e7284'
p1755
aa(lp1756
S'var/db/pkg/nbsed-20040821nb1/+COMMENT'
p1757
aS'588052e648f96e11fc5078e2dce791eb'
p1758
aa(lp1759
S'var/db/pkg/nbsed-20040821nb1/+BUILD_VERSION'
p1760
aS'59f65c0bcd74971ec2989a9baacbc802'
p1761
aa(lp1762
S'var/db/pkg/nbsed-20040821nb1/+CONTENTS'
p1763
aS'536ee9d77000352c20ed0089fe9c9310'
p1764
aa(lp1765
S'var/db/pkg/nbsed-20040821nb1/+SIZE_PKG'
p1766
aS'897316929176464ebc9ad085f31e7284'
p1767
aa(lp1768
S'var/db/pkg/nbsed-20040821nb1/+DESC'
p1769
aS'264e83b5e3f4582d2e25cd25406dd1aa'
p1770
aa(lp1771
S'var/db/pkg/nbsed-20040821nb1/+BUILD_INFO'
p1772
aS'08a0999bf200a10856066e9d308c1ceb'
p1773
aa(lp1774
S'var/db/pkg/nbsed-20040821nb1/+PRESERVE'
p1775
aS'8bbb1ca5f99e2483c0fdab4d61b0932c'
p1776
aa(lp1777
S'var/db/pkg/xmlto-0.0.21nb1/+SIZE_ALL'
p1778
aS'897316929176464ebc9ad085f31e7284'
p1779
aa(lp1780
S'var/db/pkg/xmlto-0.0.21nb1/+INSTALLED_INFO'
p1781
aS'65d6bb0a6aa6f7d6e5551405db02d6f9'
p1782
aa(lp1783
S'var/db/pkg/xmlto-0.0.21nb1/+COMMENT'
p1784
aS'70886cd6f7a2ad73bc97374fc765ca00'
p1785
aa(lp1786
S'var/db/pkg/xmlto-0.0.21nb1/+BUILD_VERSION'
p1787
aS'943216d8dcde019554dfdfea3a8c369a'
p1788
aa(lp1789
S'var/db/pkg/xmlto-0.0.21nb1/+CONTENTS'
p1790
aS'5d736bbeee52938781e3e4dbac2013af'
p1791
aa(lp1792
S'var/db/pkg/xmlto-0.0.21nb1/+SIZE_PKG'
p1793
aS'897316929176464ebc9ad085f31e7284'
p1794
aa(lp1795
S'var/db/pkg/xmlto-0.0.21nb1/+DESC'
p1796
aS'2c69f4f4c83134aea685c479eab6b6e8'
p1797
aa(lp1798
S'var/db/pkg/xmlto-0.0.21nb1/+BUILD_INFO'
p1799
aS'cbf67edf6358e5899f8c81abf60ffeba'
p1800
aa(lp1801
S'var/db/pkg/gettext-m4-0.14.6/+SIZE_ALL'
p1802
aS'897316929176464ebc9ad085f31e7284'
p1803
aa(lp1804
S'var/db/pkg/gettext-m4-0.14.6/+INSTALLED_INFO'
p1805
aS'65d6bb0a6aa6f7d6e5551405db02d6f9'
p1806
aa(lp1807
S'var/db/pkg/gettext-m4-0.14.6/+COMMENT'
p1808
aS'a014954880847c68557dd42e3d053754'
p1809
aa(lp1810
S'var/db/pkg/gettext-m4-0.14.6/+REQUIRED_BY'
p1811
aS'680257f3d80b9157a567caef8d10ba91'
p1812
aa(lp1813
S'var/db/pkg/gettext-m4-0.14.6/+BUILD_VERSION'
p1814
aS'b314c4e883c40193d4ab328110579b36'
p1815
aa(lp1816
S'var/db/pkg/gettext-m4-0.14.6/+CONTENTS'
p1817
aS'7bba581c55184bd937b6eede531c167e'
p1818
aa(lp1819
S'var/db/pkg/gettext-m4-0.14.6/+SIZE_PKG'
p1820
aS'897316929176464ebc9ad085f31e7284'
p1821
aa(lp1822
S'var/db/pkg/gettext-m4-0.14.6/+DESC'
p1823
aS'cf3a268f95087c271ca31e94b9f3f06f'
p1824
aa(lp1825
S'var/db/pkg/gettext-m4-0.14.6/+BUILD_INFO'
p1826
aS'47b73e4f5172c64205c7313061c8f57a'
p1827
aa(lp1828
S'var/db/pkg/jed-0.99.16nb2/+SIZE_ALL'
p1829
aS'897316929176464ebc9ad085f31e7284'
p1830
aa(lp1831
S'var/db/pkg/jed-0.99.16nb2/+FILES'
p1832
aS'a162710903e650324d5b46aa8a8cee5a'
p1833
aa(lp1834
S'var/db/pkg/jed-0.99.16nb2/+COMMENT'
p1835
aS'caf611471a2a6e25755ffeb9faebacd0'
p1836
aa(lp1837
S'var/db/pkg/jed-0.99.16nb2/+BUILD_VERSION'
p1838
aS'a746500ab1dfa21a43f506a1a6b7e73e'
p1839
aa(lp1840
S'var/db/pkg/jed-0.99.16nb2/+CONTENTS'
p1841
aS'f97c5e53871ea549d992776ff3d6f84f'
p1842
aa(lp1843
S'var/db/pkg/jed-0.99.16nb2/+SIZE_PKG'
p1844
aS'897316929176464ebc9ad085f31e7284'
p1845
aa(lp1846
S'var/db/pkg/jed-0.99.16nb2/+DISPLAY'
p1847
aS'24644e42e5df06a0ad5f646e3dd0388a'
p1848
aa(lp1849
S'var/db/pkg/jed-0.99.16nb2/+DEINSTALL'
p1850
aS'73ae59ba37513b6865dc4bae3d68443e'
p1851
aa(lp1852
S'var/db/pkg/jed-0.99.16nb2/+DIRS'
p1853
aS'39e0424ca9e60d7ddce5a1ef6929065d'
p1854
aa(lp1855
S'var/db/pkg/jed-0.99.16nb2/+DESC'
p1856
aS'6a6afa21e4e5615d9dd02c1ef0403ab0'
p1857
aa(lp1858
S'var/db/pkg/jed-0.99.16nb2/+INSTALL'
p1859
aS'3edd56549d1d3eae76e7d77699873f28'
p1860
aa(lp1861
S'var/db/pkg/jed-0.99.16nb2/+BUILD_INFO'
p1862
aS'9251e8504572f55c8bc4977b9544acff'
p1863
aa(lp1864
S'var/db/pkg/mpfr-2.4.2.3nb1/+INFO_FILES'
p1865
aS'97df9a8a37f7d01b0ea5725a3f31ff88'
p1866
aa(lp1867
S'var/db/pkg/mpfr-2.4.2.3nb1/+SIZE_ALL'
p1868
aS'897316929176464ebc9ad085f31e7284'
p1869
aa(lp1870
S'var/db/pkg/mpfr-2.4.2.3nb1/+COMMENT'
p1871
aS'b383b2abf8331e28de72e52d14a91468'
p1872
aa(lp1873
S'var/db/pkg/mpfr-2.4.2.3nb1/+BUILD_VERSION'
p1874
aS'f4db68b10c500a1535a62d23d59ad59d'
p1875
aa(lp1876
S'var/db/pkg/mpfr-2.4.2.3nb1/+CONTENTS'
p1877
aS'2db3d62ea70d7d6b3e1d0305be6bb21e'
p1878
aa(lp1879
S'var/db/pkg/mpfr-2.4.2.3nb1/+SIZE_PKG'
p1880
aS'897316929176464ebc9ad085f31e7284'
p1881
aa(lp1882
S'var/db/pkg/mpfr-2.4.2.3nb1/+DEINSTALL'
p1883
aS'fdcf192aecf9362e75906c53e7c53d86'
p1884
aa(lp1885
S'var/db/pkg/mpfr-2.4.2.3nb1/+DESC'
p1886
aS'9c55b4eac29415120568790bb4eaa46b'
p1887
aa(lp1888
S'var/db/pkg/mpfr-2.4.2.3nb1/+INSTALL'
p1889
aS'54f29a62b5e7a8a0c731743c3a7f2e5e'
p1890
aa(lp1891
S'var/db/pkg/mpfr-2.4.2.3nb1/+BUILD_INFO'
p1892
aS'7391bbe5ed0a2931b114c03183fb4ffc'
p1893
aa(lp1894
S'var/db/pkg/automake-1.11.1/+INFO_FILES'
p1895
aS'7592f770e1ae6ea3ab928fe9cec62461'
p1896
aa(lp1897
S'var/db/pkg/automake-1.11.1/+SIZE_ALL'
p1898
aS'897316929176464ebc9ad085f31e7284'
p1899
aa(lp1900
S'var/db/pkg/automake-1.11.1/+COMMENT'
p1901
aS'952451e2a5b0c8f3450787ad62b7b854'
p1902
aa(lp1903
S'var/db/pkg/automake-1.11.1/+BUILD_VERSION'
p1904
aS'8ce5a5a022c51f71ba94b4b276c9d779'
p1905
aa(lp1906
S'var/db/pkg/automake-1.11.1/+CONTENTS'
p1907
aS'a887c440fdeb250fb4eaed060bb7c63d'
p1908
aa(lp1909
S'var/db/pkg/automake-1.11.1/+SIZE_PKG'
p1910
aS'897316929176464ebc9ad085f31e7284'
p1911
aa(lp1912
S'var/db/pkg/automake-1.11.1/+DEINSTALL'
p1913
aS'faa107e54cbb81f040ecf193d806b87b'
p1914
aa(lp1915
S'var/db/pkg/automake-1.11.1/+DESC'
p1916
aS'a57e0e75e0e27f5306dc8f8b0b7a8166'
p1917
aa(lp1918
S'var/db/pkg/automake-1.11.1/+INSTALL'
p1919
aS'733542bf92f81eae7f87c01ce725fa0a'
p1920
aa(lp1921
S'var/db/pkg/automake-1.11.1/+BUILD_INFO'
p1922
aS'95976e71582796305f27b1f40671377e'
p1923
aa(lp1924
S'var/db/pkg/zile-2.3.9nb1/+INFO_FILES'
p1925
aS'799b9cc78bb06b34bfcf6272148e2566'
p1926
aa(lp1927
S'var/db/pkg/zile-2.3.9nb1/+SIZE_ALL'
p1928
aS'897316929176464ebc9ad085f31e7284'
p1929
aa(lp1930
S'var/db/pkg/zile-2.3.9nb1/+COMMENT'
p1931
aS'496efc9ab81ac6318025322a097edd45'
p1932
aa(lp1933
S'var/db/pkg/zile-2.3.9nb1/+BUILD_VERSION'
p1934
aS'aa49a61ec9e8944f6fb2704b1716f7d7'
p1935
aa(lp1936
S'var/db/pkg/zile-2.3.9nb1/+CONTENTS'
p1937
aS'5f74f811e6d202997adf56697137a338'
p1938
aa(lp1939
S'var/db/pkg/zile-2.3.9nb1/+SIZE_PKG'
p1940
aS'897316929176464ebc9ad085f31e7284'
p1941
aa(lp1942
S'var/db/pkg/zile-2.3.9nb1/+DEINSTALL'
p1943
aS'2869132b66710299c101fa5290cc8b81'
p1944
aa(lp1945
S'var/db/pkg/zile-2.3.9nb1/+DESC'
p1946
aS'41dcb95d805381216195c738b2d2a883'
p1947
aa(lp1948
S'var/db/pkg/zile-2.3.9nb1/+INSTALL'
p1949
aS'c611165babc3f716d814c5c74895c51d'
p1950
aa(lp1951
S'var/db/pkg/zile-2.3.9nb1/+BUILD_INFO'
p1952
aS'd2690e2de4b26aca76cdcbd76c2de545'
p1953
aa(lp1954
S'var/db/pkg/pkg-config-0.23nb1/+SIZE_ALL'
p1955
aS'897316929176464ebc9ad085f31e7284'
p1956
aa(lp1957
S'var/db/pkg/pkg-config-0.23nb1/+INSTALLED_INFO'
p1958
aS'65d6bb0a6aa6f7d6e5551405db02d6f9'
p1959
aa(lp1960
S'var/db/pkg/pkg-config-0.23nb1/+COMMENT'
p1961
aS'65ac609bafbff8216260433b57b61eab'
p1962
aa(lp1963
S'var/db/pkg/pkg-config-0.23nb1/+BUILD_VERSION'
p1964
aS'f74c5932f5d75c71b9d440b36a567712'
p1965
aa(lp1966
S'var/db/pkg/pkg-config-0.23nb1/+CONTENTS'
p1967
aS'cfe0b008717ad33c5a42c660290b9c8b'
p1968
aa(lp1969
S'var/db/pkg/pkg-config-0.23nb1/+SIZE_PKG'
p1970
aS'897316929176464ebc9ad085f31e7284'
p1971
aa(lp1972
S'var/db/pkg/pkg-config-0.23nb1/+DESC'
p1973
aS'f54969e17e80e9b9f99f076ab6a5157c'
p1974
aa(lp1975
S'var/db/pkg/pkg-config-0.23nb1/+BUILD_INFO'
p1976
aS'b40e3a40bc728b8a3e709b62354bfaf8'
p1977
aa(lp1978
S'var/db/pkg/asciidoc-8.3.3nb1/+SIZE_ALL'
p1979
aS'897316929176464ebc9ad085f31e7284'
p1980
aa(lp1981
S'var/db/pkg/asciidoc-8.3.3nb1/+INSTALLED_INFO'
p1982
aS'65d6bb0a6aa6f7d6e5551405db02d6f9'
p1983
aa(lp1984
S'var/db/pkg/asciidoc-8.3.3nb1/+COMMENT'
p1985
aS'd356bfa83696727fff3fb15d77bd1778'
p1986
aa(lp1987
S'var/db/pkg/asciidoc-8.3.3nb1/+BUILD_VERSION'
p1988
aS'4651d4a2125a0b5fb35e7091bfee1a6b'
p1989
aa(lp1990
S'var/db/pkg/asciidoc-8.3.3nb1/+CONTENTS'
p1991
aS'be70d36b9d44b78010f579ac7ca009a7'
p1992
aa(lp1993
S'var/db/pkg/asciidoc-8.3.3nb1/+SIZE_PKG'
p1994
aS'897316929176464ebc9ad085f31e7284'
p1995
aa(lp1996
S'var/db/pkg/asciidoc-8.3.3nb1/+DESC'
p1997
aS'3ce5639735d0f19f7306d6cb2a5282ac'
p1998
aa(lp1999
S'var/db/pkg/asciidoc-8.3.3nb1/+BUILD_INFO'
p2000
aS'd6a4f8c0c61888bcc725fec89620a428'
p2001
aa(lp2002
S'var/db/pkg/bmake-20100423/+SIZE_ALL'
p2003
aS'897316929176464ebc9ad085f31e7284'
p2004
aa(lp2005
S'var/db/pkg/bmake-20100423/+COMMENT'
p2006
aS'54ea1dbbde1d884ad53bb53d37e0d221'
p2007
aa(lp2008
S'var/db/pkg/bmake-20100423/+BUILD_VERSION'
p2009
aS'e204e8138272f341194bd70cf6ac8029'
p2010
aa(lp2011
S'var/db/pkg/bmake-20100423/+CONTENTS'
p2012
aS'9d5a6b1b3e9a6eaa02e52975559e73da'
p2013
aa(lp2014
S'var/db/pkg/bmake-20100423/+SIZE_PKG'
p2015
aS'897316929176464ebc9ad085f31e7284'
p2016
aa(lp2017
S'var/db/pkg/bmake-20100423/+DESC'
p2018
aS'5db90123251bc5165051bee2de3008a0'
p2019
aa(lp2020
S'var/db/pkg/bmake-20100423/+BUILD_INFO'
p2021
aS'55976eb59d61875aaa4f60624802bbba'
p2022
aa(lp2023
S'var/db/pkg/bmake-20100423/+PRESERVE'
p2024
aS'e4f8d91151be0fcd2666a62488c55027'
p2025
aa(lp2026
S'var/db/pkg/libwww-5.4.0nb9/+SIZE_ALL'
p2027
aS'897316929176464ebc9ad085f31e7284'
p2028
aa(lp2029
S'var/db/pkg/libwww-5.4.0nb9/+INSTALLED_INFO'
p2030
aS'65d6bb0a6aa6f7d6e5551405db02d6f9'
p2031
aa(lp2032
S'var/db/pkg/libwww-5.4.0nb9/+COMMENT'
p2033
aS'fb2e3a93fbb1d2191f5536101962a73f'
p2034
aa(lp2035
S'var/db/pkg/libwww-5.4.0nb9/+REQUIRED_BY'
p2036
aS'5e6483aeec63a4d8e6b50e098fa48198'
p2037
aa(lp2038
S'var/db/pkg/libwww-5.4.0nb9/+BUILD_VERSION'
p2039
aS'e7fa7e7c4f4cfb83d64dee20357c6b91'
p2040
aa(lp2041
S'var/db/pkg/libwww-5.4.0nb9/+CONTENTS'
p2042
aS'39a45e1429efc84176aeba0e9027230c'
p2043
aa(lp2044
S'var/db/pkg/libwww-5.4.0nb9/+SIZE_PKG'
p2045
aS'897316929176464ebc9ad085f31e7284'
p2046
aa(lp2047
S'var/db/pkg/libwww-5.4.0nb9/+DESC'
p2048
aS'161e6612b2f40f8524daa7936664a4ef'
p2049
aa(lp2050
S'var/db/pkg/libwww-5.4.0nb9/+BUILD_INFO'
p2051
aS'4938443fa92451f4a3f178e51d52b1de'
p2052
aa(lp2053
S'var/db/pkg/boost-jam-1.42.0/+SIZE_ALL'
p2054
aS'897316929176464ebc9ad085f31e7284'
p2055
aa(lp2056
S'var/db/pkg/boost-jam-1.42.0/+INSTALLED_INFO'
p2057
aS'65d6bb0a6aa6f7d6e5551405db02d6f9'
p2058
aa(lp2059
S'var/db/pkg/boost-jam-1.42.0/+COMMENT'
p2060
aS'78ada1216992b6acce32fc31a37e6802'
p2061
aa(lp2062
S'var/db/pkg/boost-jam-1.42.0/+BUILD_VERSION'
p2063
aS'bdf652c772975c0e470b9633e1c1bc3f'
p2064
aa(lp2065
S'var/db/pkg/boost-jam-1.42.0/+CONTENTS'
p2066
aS'aa29e761c03367c7ea56b4dba4615ad4'
p2067
aa(lp2068
S'var/db/pkg/boost-jam-1.42.0/+SIZE_PKG'
p2069
aS'897316929176464ebc9ad085f31e7284'
p2070
aa(lp2071
S'var/db/pkg/boost-jam-1.42.0/+DESC'
p2072
aS'10be5036cdee03435bbd8acf02c2f05f'
p2073
aa(lp2074
S'var/db/pkg/boost-jam-1.42.0/+BUILD_INFO'
p2075
aS'183ebc5e040829a2c826f2a31361bc33'
p2076
aa.