(lp0
(lp1
S'usr/pkg/etc/jed.conf'
p2
aS'9608f1a10eb725ce940435342785bf30'
p3
aa(lp4
S'usr/pkg/etc/mk.conf.gcc'
p5
aS'f3f02d50e5a77bb7861962bef724a578'
p6
aa(lp7
S'usr/pkg/etc/mk.conf.qcc'
p8
aS'12116f5834b288b85de75414ef47489b'
p9
aa(lp10
S'usr/pkg/etc/mk.conf'
p11
aS'12116f5834b288b85de75414ef47489b'
p12
aa(lp13
S'usr/pkg/etc/xml/catalog'
p14
aS'15c502f81a5c1b91f6c9c20a15d1eb12'
p15
aa(lp16
S'usr/pkg/etc/sgml/catalog'
p17
aS'ced24ae9ca59c4e943a1b33ea2a348b6'
p18
aa.