(lp0
(lp1
S'opt/nextage-open/lib/libNxOpenCore.so'
p2
aS'6800e9dc8c1341a306e3a9a283f116bc'
p3
aa(lp4
S'opt/nextage-open/lib/libNxOpenCore.so.1.0.0'
p5
aS'6800e9dc8c1341a306e3a9a283f116bc'
p6
aa(lp7
S'opt/nextage-open/lib/libNxOpenCore.so.1'
p8
aS'6800e9dc8c1341a306e3a9a283f116bc'
p9
aa(lp10
S'opt/nextage-open/lib/libhrpIo.so'
p11
aS'3e4422baf1610048ea6b7e39e2fa53e4'
p12
aa.