(lp0
(lp1
S'usr/pkg/sbin/pkg_info'
p2
aS'532d527929c02e391c3b94e2402aca25'
p3
aa(lp4
S'usr/pkg/sbin/download-vulnerability-list'
p5
aS'03bc26109bd103eb06a0e39d2387b1d6'
p6
aa(lp7
S'usr/pkg/sbin/pkg_create'
p8
aS'7a56cb77c4fa06db7d1fc57bd3bfa5e6'
p9
aa(lp10
S'usr/pkg/sbin/audit-packages'
p11
aS'ca84ece5c0c809f2b00d4384bd91fa1e'
p12
aa(lp13
S'usr/pkg/sbin/pkg_add'
p14
aS'faa985145026733a2170feccf32bd19f'
p15
aa(lp16
S'usr/pkg/sbin/pkg_delete'
p17
aS'5d3ffa609a595cc4496ae69778a4468b'
p18
aa(lp19
S'usr/pkg/sbin/pkg_admin'
p20
aS'1f769e81d3b64c759ecc6bda04fa379c'
p21
aa.